(dp0
I0
F0.34790897969467577
sI1
F0.41733817537810564
sI2
F0.37115770482588045
sI3
F0.3380287813140525
sI4
F0.29257688265398185
sI5
F0.37115770482588045
sI6
F0.2672375831423503
sI7
F0.2474499597722944
sI8
F0.26145644220753367
sI9
F0.37115770482588045
sI10
F0.45361666277730095
sI11
F0.4312139171803354
sI12
F0.3147921844476548
sI13
F0.2739783215095572
sI14
F0.27769021229135443
sI15
F0.31815495225963436
sI16
F0.45361666277730095
sI17
F0.45361666277730095
sI18
F0.37115770482588045
sI19
F0.31212498691456786
sI20
F0.4072789780273198
sI21
F0.37115770482588045
sI22
F0.4015887645544022
sI23
F0.3224100297338033
sI24
F0.33162972469144164
sI25
F0.41733817537810564
sI26
F0.3073688502519994
sI27
F0.45361666277730095
sI28
F0.4562672154362555
sI29
F0.5244309007361362
sI30
F0.4696465245950031
sI31
F0.27742038327309726
sI32
F0.32616092016126796
sI33
F0.28161142155326235
sI34
F0.44346984750122836
sI35
F0.41733817537810564
sI36
F0.32616092016126796
sI37
F0.30183730432932726
sI38
F0.3154422296373848
sI39
F0.32967648788757276
sI40
F0.41733817537810564
sI41
F0.32967648788757276
sI42
F0.4072789780273198
sI43
F0.29369900872518545
sI44
F0.45361666277730095
sI45
F0.2862749095484308
sI46
F0.26145644220753367
sI47
F0.273487944254197
sI48
F0.4312139171803354
sI49
F0.37115770482588045
sI50
F0.2739783215095572
sI51
F0.37115770482588045
sI52
F0.3943977821077957
sI53
F0.2530917667913436
sI54
F0.2698774048154851
sI55
F0.37115770482588045
sI56
F0.2833018101435445
sI57
F0.37115770482588045
sI58
F0.2474499597722944
sI59
F0.4129272819483681
sI60
F0.45033138132564293
sI61
F0.45033138132564293
sI62
F0.4129272819483681
sI63
F0.4129272819483681
sI64
F0.45361666277730095
sI65
F0.4129272819483681
sI66
F0.3347298866204386
sI67
F0.34993136549760295
sI68
F0.3919716438594001
sI69
F0.30455564997154017
sI70
F0.37807850119340497
sI71
F0.32118253168214367
sI72
F0.37807850119340497
sI73
F0.37807850119340497
sI74
F0.2833018101435445
sI75
F0.37115770482588045
sI76
F0.2474499597722944
sI77
F0.4129272819483681
sI78
F0.45033138132564293
sI79
F0.45033138132564293
sI80
F0.4129272819483681
sI81
F0.4129272819483681
sI82
F0.45361666277730095
sI83
F0.4129272819483681
sI84
F0.317801018682427
sI85
F0.5244309007361362
sI86
F0.3073688502519994
sI87
F0.4295919907658751
sI88
F0.4387827655326121
sI89
F0.4387827655326121
sI90
F0.37115770482588045
sI91
F0.27972373122970084
sI92
F0.3645982614023189
sI93
F0.3911042191089364
sI94
F0.37115770482588045
sI95
F1.0
sI96
F0.31770274423240347
sI97
F0.44346984750122836
sI98
F0.38483959275865537
sI99
F0.37115770482588045
sI100
F0.37115770482588045
sI101
F0.37115770482588045
sI102
F0.3503192145692992
sI103
F0.41733817537810564
sI104
F0.4129272819483681
sI105
F0.45361666277730095
sI106
F0.4129272819483681
sI107
F0.4129272819483681
sI108
F0.45033138132564293
sI109
F0.45033138132564293
sI110
F0.4129272819483681
sI111
F0.2474499597722944
sI112
F0.37115770482588045
sI113
F0.2833018101435445
sI114
F0.28161142155326235
sI115
F0.32616092016126796
sI116
F0.27742038327309726
sI117
F0.4696465245950031
sI118
F0.5244309007361362
sI119
F0.4562672154362555
sI120
F0.45361666277730095
sI121
F0.2996995446835124
sI122
F0.274592626548707
sI123
F0.3029152791078141
sI124
F0.30183730432932726
sI125
F0.2996995446835124
sI126
F0.32616092016126796
sI127
F0.3029152791078141
sI128
F0.26145644220753367
sI129
F0.36506213000212273
sI130
F0.37115770482588045
sI131
F0.37115770482588045
sI132
F1.0
sI133
F0.37115770482588045
sI134
F0.37115770482588045
sI135
F0.37115770482588045
sI136
F0.41733817537810564
sI137
F0.3503192145692992
sI138
F0.44346984750122836
sI139
F0.31770274423240347
sI140
F0.37115770482588045
sI141
F0.38483959275865537
sI142
F0.45361666277730095
sI143
F0.47202845654375875
sI144
F0.41581527421252584
sI145
F0.3326815790962817
sI146
F0.440634367714651
sI147
F0.37115770482588045
sI148
F0.45361666277730095
sI149
F0.4072789780273198
sI150
F0.31815495225963436
sI151
F0.27769021229135443
sI152
F0.2739783215095572
sI153
F0.3147921844476548
sI154
F0.31212498691456786
sI155
F0.37115770482588045
sI156
F0.3224100297338033
sI157
F0.4015887645544022
sI158
F0.45033138132564293
sI159
F0.45033138132564293
sI160
F0.2474499597722944
sI161
F0.4129272819483681
sI162
F0.45361666277730095
sI163
F0.4129272819483681
sI164
F0.4129272819483681
sI165
F0.4129272819483681
sI166
F0.2833018101435445
sI167
F0.37115770482588045
sI168
F0.37115770482588045
sI169
F0.37115770482588045
sI170
F0.2996995446835124
sI171
F0.30183730432932726
sI172
F0.3029152791078141
sI173
F0.274592626548707
sI174
F0.36506213000212273
sI175
F0.26145644220753367
sI176
F0.3029152791078141
sI177
F0.32616092016126796
sI178
F0.4312139171803354
sI179
F0.45361666277730095
sI180
F0.31212498691456786
sI181
F0.37115770482588045
sI182
F0.45361666277730095
sI183
F0.45361666277730095
sI184
F0.31815495225963436
sI185
F0.27769021229135443
sI186
F0.2739783215095572
sI187
F0.3147921844476548
sI188
F0.37115770482588045
sI189
F0.37115770482588045
sI190
F0.30183730432932726
sI191
F0.2996995446835124
sI192
F0.274592626548707
sI193
F0.3029152791078141
sI194
F0.26145644220753367
sI195
F0.36506213000212273
sI196
F0.32616092016126796
sI197
F0.3029152791078141
sI198
F0.4295919907658751
sI199
F0.2876349046992291
sI200
F0.37115770482588045
sI201
F0.3693938630762921
sI202
F0.2866017972133953
sI203
F0.2911841845665237
sI204
F0.26145644220753367
sI205
F0.3718607659873502
sI206
F0.272954092584186
sI207
F0.32967648788757276
sI208
F0.41581527421252584
sI209
F0.3326815790962817
sI210
F0.45361666277730095
sI211
F0.47202845654375875
sI212
F0.45361666277730095
sI213
F0.4072789780273198
sI214
F0.440634367714651
sI215
F0.37115770482588045
sI216
F0.3224100297338033
sI217
F0.4015887645544022
sI218
F0.2960401278100597
sI219
F0.3162727455028367
sI220
F0.2873654612844768
sI221
F0.3009245841000464
sI222
F0.3727583577225788
sI223
F0.30399451352009244
sI224
F0.38535466992881545
sI225
F0.32559257807001424
sI226
F0.317801018682427
sI227
F0.347630519549878
sI228
F0.30538143191249223
sI229
F0.319768391700479
sI230
F0.37115770482588045
sI231
F0.28598175746221494
sI232
F0.4034320561681314
sI233
F0.30816192530855685
sI234
F0.2779153614450123
sI235
F0.45361666277730095
sI236
F0.37115770482588045
sI237
F0.273487944254197
sI238
F0.26145644220753367
sI239
F0.37115770482588045
sI240
F0.37115770482588045
sI241
F0.45361666277730095
sI242
F0.5244309007361362
sI243
F0.37115770482588045
sI244
F0.25556483811043473
sI245
F0.5170770444816605
sI246
F0.32967648788757276
sI247
F0.4312139171803354
sI248
F0.3147921844476548
sI249
F0.2862749095484308
sI250
F0.45361666277730095
sI251
F0.37115770482588045
sI252
F0.2698774048154851
sI253
F0.2530917667913436
sI254
F0.3943977821077957
sI255
F0.37115770482588045
sI256
F0.2739783215095572
sI257
F0.37115770482588045
sI258
F0.4312139171803354
sI259
F0.4295919907658751
sI260
F0.37115770482588045
sI261
F0.5023561838748253
sI262
F0.5244309007361362
sI263
F0.32967648788757276
sI264
F0.37115770482588045
sI265
F0.2784870916954602
sI266
F0.5170770444816605
sI267
F0.3645982614023189
sI268
F0.37115770482588045
sI269
F0.3319561049347182
sI270
F0.48201991606354083
sI271
F0.3139463060892092
sI272
F0.2571428571428571
sI273
F0.26145644220753367
sI274
F0.3168252329511417
sI275
F0.3411926157302325
sI276
F0.3370155390968863
sI277
F0.43528047903360373
sI278
F0.489439282912941
sI279
F0.4034320561681314
sI280
F0.28598175746221494
sI281
F0.37115770482588045
sI282
F0.319768391700479
sI283
F0.3425137653525856
sI284
F0.45361666277730095
sI285
F0.5319853951676884
sI286
F0.45361666277730095
sI287
F0.2779153614450123
sI288
F0.28718577658216576
sI289
F0.26145644220753367
sI290
F0.287876548173666
sI291
F0.37115770482588045
sI292
F0.36866297825341776
sI293
F0.4551735588700075
sI294
F0.3265796510486626
sI295
F0.30279507463197763
sI296
F0.28252964232226613
sI297
F0.26145644220753367
sI298
F0.26145644220753367
sI299
F0.3038265607501918
sI300
F0.32776719330987586
sI301
F0.38413876753097853
sI302
F0.3866327916892876
sI303
F0.382424992293809
sI304
F0.3225156385915272
sI305
F0.32967648788757276
sI306
F0.43528047903360373
sI307
F0.489439282912941
sI308
F0.3319561049347182
sI309
F0.48201991606354083
sI310
F0.3139463060892092
sI311
F0.2571428571428571
sI312
F0.26145644220753367
sI313
F0.3168252329511417
sI314
F0.3411926157302325
sI315
F0.3370155390968863
sI316
F0.26145644220753367
sI317
F0.28252964232226613
sI318
F0.38413876753097853
sI319
F0.32776719330987586
sI320
F0.3038265607501918
sI321
F0.26145644220753367
sI322
F0.32967648788757276
sI323
F0.3225156385915272
sI324
F0.382424992293809
sI325
F0.3866327916892876
sI326
F0.45033138132564293
sI327
F0.4129272819483681
sI328
F0.4562672154362555
sI329
F0.45361666277730095
sI330
F0.37115770482588045
sI331
F0.4295919907658751
sI332
F0.4312139171803354
sI333
F0.42843823789397756
sI334
F0.37115770482588045
sI335
F0.37115770482588045
sI336
F0.3357329742132884
sI337
F0.2724144547389476
sI338
F0.4015887645544022
sI339
F0.3224100297338033
sI340
F0.47202845654375875
sI341
F0.45361666277730095
sI342
F0.3326815790962817
sI343
F0.41581527421252584
sI344
F0.37115770482588045
sI345
F0.440634367714651
sI346
F0.4072789780273198
sI347
F0.45361666277730095
sI348
F0.29369900872518545
sI349
F0.4072789780273198
sI350
F0.41733817537810564
sI351
F0.44346984750122836
sI352
F0.30183730432932726
sI353
F0.32616092016126796
sI354
F0.32967648788757276
sI355
F0.3154422296373848
sI356
F0.32967648788757276
sI357
F0.41733817537810564
sI358
F0.3225156385915272
sI359
F0.45361666277730095
sI360
F0.2779153614450123
sI361
F0.30816192530855685
sI362
F0.4034320561681314
sI363
F0.38413876753097853
sI364
F0.37115770482588045
sI365
F0.319768391700479
sI366
F0.26145644220753367
sI367
F0.273487944254197
sI368
F0.28252964232226613
sI369
F0.26145644220753367
sI370
F0.30183730432932726
sI371
F0.30500317465907584
sI372
F0.329951439957456
sI373
F0.3052781690687764
sI374
F0.2845606885331709
sI375
F0.237652511871306
sI376
F0.33441276386206464
sI377
F0.2989224844140443
sI378
F0.327739121134362
sI379
F0.3473229643818979
sI380
F0.30030711311756303
sI381
F0.37115770482588045
sI382
F0.3866327916892876
sI383
F0.29867215939518227
sI384
F0.44346984750122836
sI385
F0.26838087449251796
sI386
F0.37115770482588045
sI387
F0.38413876753097853
sI388
F0.37948950212186017
sI389
F0.45945707462876634
sI390
F0.483081091497028
sI391
F0.45361666277730095
sI392
F0.31815495225963436
sI393
F0.37115770482588045
sI394
F0.4132805395094745
sI395
F0.43528047903360373
sI396
F0.42843823789397756
sI397
F0.3147921844476548
sI398
F0.4312139171803354
sI399
F0.32967648788757276
sI400
F0.5170770444816605
sI401
F0.25556483811043473
sI402
F0.37115770482588045
sI403
F0.5244309007361362
sI404
F0.45361666277730095
sI405
F0.37115770482588045
sI406
F0.37115770482588045
sI407
F0.37115770482588045
sI408
F0.3866327916892876
sI409
F0.29867215939518227
sI410
F0.4767357627510898
sI411
F0.26838087449251796
sI412
F0.37115770482588045
sI413
F0.38413876753097853
sI414
F0.37948950212186017
sI415
F0.45361666277730095
sI416
F0.3561246052268552
sI417
F0.32616092016126796
sI418
F0.25826975535347574
sI419
F0.31426566754089563
sI420
F0.31087095478401183
sI421
F0.2845606885331709
sI422
F0.3088856936864922
sI423
F0.24609121903408523
sI424
F0.2142548944664088
sI425
F0.2760867581711399
sI426
F0.25745341556809315
sI427
F0.3395745583799074
sI428
F0.4129272819483681
sI429
F0.45361666277730095
sI430
F0.4129272819483681
sI431
F0.4129272819483681
sI432
F0.45033138132564293
sI433
F0.45033138132564293
sI434
F0.4129272819483681
sI435
F0.2474499597722944
sI436
F0.37115770482588045
sI437
F0.2833018101435445
sI438
F0.45361666277730095
sI439
F0.4312139171803354
sI440
F0.45361666277730095
sI441
F0.45361666277730095
sI442
F0.37115770482588045
sI443
F0.31212498691456786
sI444
F0.3147921844476548
sI445
F0.2739783215095572
sI446
F0.27769021229135443
sI447
F0.31815495225963436
sI448
F0.37115770482588045
sI449
F0.4295919907658751
sI450
F0.5170770444816605
sI451
F0.2784870916954602
sI452
F0.37115770482588045
sI453
F0.3645982614023189
sI454
F0.5244309007361362
sI455
F0.5023561838748253
sI456
F0.37115770482588045
sI457
F0.32967648788757276
sI458
F0.3645982614023189
sI459
F0.3911042191089364
sI460
F0.317801018682427
sI461
F0.5244309007361362
sI462
F0.3073688502519994
sI463
F0.4295919907658751
sI464
F0.4387827655326121
sI465
F0.4387827655326121
sI466
F0.37115770482588045
sI467
F0.27972373122970084
sI468
F0.3326815790962817
sI469
F0.41581527421252584
sI470
F0.47202845654375875
sI471
F0.45361666277730095
sI472
F0.4072789780273198
sI473
F0.45361666277730095
sI474
F0.37115770482588045
sI475
F0.440634367714651
sI476
F0.4015887645544022
sI477
F0.3224100297338033
sI478
F0.28161142155326235
sI479
F0.32616092016126796
sI480
F0.27742038327309726
sI481
F0.4696465245950031
sI482
F0.5244309007361362
sI483
F0.4562672154362555
sI484
F0.45361666277730095
sI485
F0.3073688502519994
sI486
F0.45945707462876634
sI487
F0.483081091497028
sI488
F0.41733817537810564
sI489
F0.33162972469144164
sI490
F0.37115770482588045
sI491
F0.4132805395094745
sI492
F0.43528047903360373
sI493
F0.42843823789397756
sI494
F0.28125734050143125
sI495
F0.2888013794222938
sI496
F0.33349594104800423
sI497
F0.2898719291606712
sI498
F0.27139547799915187
sI499
F0.23038002797504958
sI500
F0.2956477353856426
sI501
F0.40681334844143635
sI502
F0.4072789780273198
sI503
F0.5244309007361362
sI504
F0.5023561838748253
sI505
F0.37115770482588045
sI506
F0.32967648788757276
sI507
F0.5170770444816605
sI508
F0.2784870916954602
sI509
F0.37115770482588045
sI510
F0.3645982614023189
sI511
F0.37115770482588045
sI512
F0.4295919907658751
sI513
F0.45361666277730095
sI514
F0.37115770482588045
sI515
F0.4312139171803354
sI516
F0.4129272819483681
sI517
F0.45033138132564293
sI518
F0.45033138132564293
sI519
F0.3943977821077957
sI520
F0.4129272819483681
sI521
F0.2833018101435445
sI522
F0.4562672154362555
sI523
F0.45361666277730095
sI524
F0.3073688502519994
sI525
F0.28161142155326235
sI526
F0.32616092016126796
sI527
F0.27742038327309726
sI528
F0.4696465245950031
sI529
F0.5319853951676884
sI530
F0.45361666277730095
sI531
F0.287876548173666
sI532
F0.37115770482588045
sI533
F0.28718577658216576
sI534
F0.26145644220753367
sI535
F0.3265796510486626
sI536
F0.30279507463197763
sI537
F0.36866297825341776
sI538
F0.4551735588700075
sI539
F0.2672375831423503
sI540
F0.36866297825341776
sI541
F0.4551735588700075
sI542
F0.3265796510486626
sI543
F0.30279507463197763
sI544
F0.28718577658216576
sI545
F0.26145644220753367
sI546
F0.287876548173666
sI547
F0.37115770482588045
sI548
F0.5319853951676884
sI549
F0.45361666277730095
sI550
F0.32967648788757276
sI551
F0.37115770482588045
sI552
F0.5023561838748253
sI553
F0.5244309007361362
sI554
F0.3645982614023189
sI555
F0.37115770482588045
sI556
F0.2784870916954602
sI557
F0.2474499597722944
sI558
F0.26145644220753367
sI559
F0.37115770482588045
sI560
F0.272954092584186
sI561
F0.32967648788757276
sI562
F0.4295919907658751
sI563
F0.2876349046992291
sI564
F0.37115770482588045
sI565
F0.3693938630762921
sI566
F0.2866017972133953
sI567
F0.2911841845665237
sI568
F0.26145644220753367
sI569
F0.3718607659873502
sI570
F0.3943977821077957
sI571
F0.2530917667913436
sI572
F0.2698774048154851
sI573
F0.37115770482588045
sI574
F0.4312139171803354
sI575
F0.37115770482588045
sI576
F0.2739783215095572
sI577
F0.37115770482588045
sI578
F0.45361666277730095
sI579
F0.2862749095484308
sI580
F0.3029152791078141
sI581
F0.32616092016126796
sI582
F0.36506213000212273
sI583
F0.26145644220753367
sI584
F0.3029152791078141
sI585
F0.274592626548707
sI586
F0.2996995446835124
sI587
F0.30183730432932726
sI588
F0.37115770482588045
sI589
F0.37115770482588045
sI590
F0.37115770482588045
sI591
F0.37115770482588045
sI592
F0.2996995446835124
sI593
F0.30183730432932726
sI594
F0.3029152791078141
sI595
F0.274592626548707
sI596
F0.36506213000212273
sI597
F0.26145644220753367
sI598
F0.3029152791078141
sI599
F0.32616092016126796
sI600
F0.30816192530855685
sI601
F0.2700824728825508
sI602
F0.32255646891034784
sI603
F0.2675177519652845
sI604
F0.3088856936864922
sI605
F0.322724081132214
sI606
F0.359334895569266
sI607
F0.37782288209124654
sI608
F0.3473229643818979
sI609
F0.2826670048018393
sI610
F0.35489530761086147
sI611
F0.26145644220753367
sI612
F0.28252964232226613
sI613
F0.38413876753097853
sI614
F0.32776719330987586
sI615
F0.3038265607501918
sI616
F0.26145644220753367
sI617
F0.32967648788757276
sI618
F0.3225156385915272
sI619
F0.382424992293809
sI620
F0.3866327916892876
sI621
F0.32616092016126796
sI622
F0.30183730432932726
sI623
F0.44346984750122836
sI624
F0.41733817537810564
sI625
F0.41733817537810564
sI626
F0.32967648788757276
sI627
F0.3154422296373848
sI628
F0.32967648788757276
sI629
F0.4072789780273198
sI630
F0.29369900872518545
sI631
F0.45361666277730095
sI632
F0.45361666277730095
sI633
F0.4562672154362555
sI634
F0.4295919907658751
sI635
F0.37115770482588045
sI636
F0.42843823789397756
sI637
F0.4312139171803354
sI638
F0.37115770482588045
sI639
F0.37115770482588045
sI640
F0.2724144547389476
sI641
F0.3357329742132884
sI642
F0.26145644220753367
sI643
F0.28718577658216576
sI644
F0.37115770482588045
sI645
F0.287876548173666
sI646
F0.4551735588700075
sI647
F0.36866297825341776
sI648
F0.37115770482588045
sI649
F0.37115770482588045
sI650
F0.45361666277730095
sI651
F0.5319853951676884
sI652
F0.37115770482588045
sI653
F0.440634367714651
sI654
F0.4072789780273198
sI655
F0.45361666277730095
sI656
F0.47202845654375875
sI657
F0.45361666277730095
sI658
F0.3326815790962817
sI659
F0.41581527421252584
sI660
F0.4015887645544022
sI661
F0.3224100297338033
sI662
F0.40830027091492016
sI663
F0.46042710455989394
sI664
F0.35732708453706935
sI665
F0.3867677261370614
sI666
F0.3867677261370614
sI667
F0.40830027091492016
sI668
F0.37115770482588045
sI669
F0.26145644220753367
sI670
F0.273487944254197
sI671
F0.4034320561681314
sI672
F0.28598175746221494
sI673
F0.37115770482588045
sI674
F0.319768391700479
sI675
F0.3425137653525856
sI676
F0.45361666277730095
sI677
F0.2779153614450123
sI678
F0.30816192530855685
sI679
F0.37115770482588045
sI680
F0.3380287813140525
sI681
F0.34790897969467577
sI682
F0.28247765999951746
sI683
F0.34993136549760295
sI684
F0.3867677261370614
sI685
F0.34498710470911087
sI686
F0.32118253168214367
sI687
F0.31071920394527774
sI688
F0.35732708453706935
sI689
F0.4406945143644699
sI690
F0.3933750157830916
sI691
F0.38167199237699057
sI692
F0.2474499597722944
sI693
F0.45361666277730095
sI694
F0.37115770482588045
sI695
F0.4562672154362555
sI696
F0.45361666277730095
sI697
F0.37115770482588045
sI698
F0.4295919907658751
sI699
F0.4312139171803354
sI700
F0.42843823789397756
sI701
F0.37115770482588045
sI702
F0.37115770482588045
sI703
F0.3357329742132884
sI704
F0.2724144547389476
sI705
F0.3645982614023189
sI706
F0.3911042191089364
sI707
F0.317801018682427
sI708
F0.5244309007361362
sI709
F0.3073688502519994
sI710
F0.4295919907658751
sI711
F0.4387827655326121
sI712
F0.4387827655326121
sI713
F0.37115770482588045
sI714
F0.27972373122970084
sI715
F0.41581527421252584
sI716
F0.26145644220753367
sI717
F0.273487944254197
sI718
F0.2779153614450123
sI719
F0.30816192530855685
sI720
F0.3425137653525856
sI721
F0.45361666277730095
sI722
F0.37115770482588045
sI723
F0.319768391700479
sI724
F0.4034320561681314
sI725
F0.28598175746221494
sI726
F0.28252964232226613
sI727
F0.26145644220753367
sI728
F0.3866327916892876
sI729
F0.382424992293809
sI730
F0.3225156385915272
sI731
F0.32967648788757276
sI732
F0.26145644220753367
sI733
F0.3038265607501918
sI734
F0.32776719330987586
sI735
F0.38413876753097853
sI736
F0.2530917667913436
sI737
F0.32616092016126796
sI738
F0.37115770482588045
sI739
F0.319768391700479
sI740
F0.4034320561681314
sI741
F0.28598175746221494
sI742
F0.2779153614450123
sI743
F0.30816192530855685
sI744
F0.3425137653525856
sI745
F0.45361666277730095
sI746
F0.26145644220753367
sI747
F0.273487944254197
sI748
F0.4132805395094745
sI749
F0.37115770482588045
sI750
F0.42843823789397756
sI751
F0.43528047903360373
sI752
F0.483081091497028
sI753
F0.45945707462876634
sI754
F0.31815495225963436
sI755
F0.28255591168573113
sI756
F0.44346984750122836
sI757
F0.4164948977365525
sI758
F0.29369900872518545
sI759
F0.4072789780273198
sI760
F0.32967648788757276
sI761
F0.41733817537810564
sI762
F0.32967648788757276
sI763
F0.3154422296373848
sI764
F0.30183730432932726
sI765
F0.32616092016126796
sI766
F0.41733817537810564
sI767
F0.44346984750122836
sI768
F0.3380287813140525
sI769
F0.37115770482588045
sI770
F0.41733817537810564
sI771
F0.34790897969467577
sI772
F0.44346984750122836
sI773
F0.31770274423240347
sI774
F0.37115770482588045
sI775
F0.29257688265398185
sI776
F0.37115770482588045
sI777
F0.26145644220753367
sI778
F1.0
sI779
F0.37115770482588045
sI780
F0.37115770482588045
sI781
F0.29257688265398185
sI782
F0.2474499597722944
sI783
F0.2672375831423503
sI784
F0.41733817537810564
sI785
F0.34790897969467577
sI786
F0.3380287813140525
sI787
F0.37115770482588045
sI788
F0.37115770482588045
sI789
F0.26145644220753367
sI790
F0.2833018101435445
sI791
F0.37115770482588045
sI792
F0.4312139171803354
sI793
F0.45361666277730095
sI794
F0.3181999950260982
sI795
F0.2630902835316962
sI796
F0.3131270740663057
sI797
F0.2495936970330881
sI798
F0.322724081132214
sI799
F0.32772084205051366
sI800
F0.3154769149818569
sI801
F0.3452964869654575
sI802
F0.3737455239775482
sI803
F0.36273715258631856
sI804
F0.4129272819483681
sI805
F0.2474499597722944
sI806
F0.4129272819483681
sI807
F0.2862749095484308
sI808
F0.45033138132564293
sI809
F0.2530917667913436
sI810
F0.3943977821077957
sI811
F0.37115770482588045
sI812
F0.2698774048154851
sI813
F0.37115770482588045
sI814
F0.4312139171803354
sI815
F0.37115770482588045
sI816
F0.2739783215095572
sI817
F0.45945707462876634
sI818
F0.483081091497028
sI819
F0.28255591168573113
sI820
F0.31815495225963436
sI821
F0.37115770482588045
sI822
F0.4132805395094745
sI823
F0.43528047903360373
sI824
F0.42843823789397756
sI825
F0.4164948977365525
sI826
F0.44346984750122836
sI827
F0.26145644220753367
sI828
F0.28252964232226613
sI829
F0.382424992293809
sI830
F0.3866327916892876
sI831
F0.32967648788757276
sI832
F0.3225156385915272
sI833
F0.3038265607501918
sI834
F0.26145644220753367
sI835
F0.38413876753097853
sI836
F0.32776719330987586
sI837
F0.42843823789397756
sI838
F0.4312139171803354
sI839
F0.37115770482588045
sI840
F0.37115770482588045
sI841
F0.45361666277730095
sI842
F0.4562672154362555
sI843
F0.4295919907658751
sI844
F0.37115770482588045
sI845
F0.2724144547389476
sI846
F0.3357329742132884
sI847
F0.4015887645544022
sI848
F0.3224100297338033
sI849
F0.3326815790962817
sI850
F0.41581527421252584
sI851
F0.47202845654375875
sI852
F0.45361666277730095
sI853
F0.4072789780273198
sI854
F0.45361666277730095
sI855
F0.37115770482588045
sI856
F0.440634367714651
sI857
F0.3319561049347182
sI858
F0.48201991606354083
sI859
F0.3139463060892092
sI860
F0.2571428571428571
sI861
F0.26145644220753367
sI862
F0.3168252329511417
sI863
F0.3411926157302325
sI864
F0.3370155390968863
sI865
F0.43528047903360373
sI866
F0.489439282912941
sI867
F0.4015887645544022
sI868
F0.3224100297338033
sI869
F0.3326815790962817
sI870
F0.41581527421252584
sI871
F0.47202845654375875
sI872
F0.45361666277730095
sI873
F0.4072789780273198
sI874
F0.45361666277730095
sI875
F0.37115770482588045
sI876
F0.440634367714651
sI877
F0.32967648788757276
sI878
F0.45361666277730095
sI879
F0.3073688502519994
sI880
F0.5244309007361362
sI881
F0.4562672154362555
sI882
F0.27742038327309726
sI883
F0.4696465245950031
sI884
F0.28161142155326235
sI885
F0.32616092016126796
sI886
F0.41733817537810564
sI887
F0.33162972469144164
sI888
F0.3866327916892876
sI889
F0.37115770482588045
sI890
F0.440634367714651
sI891
F0.2833018101435445
sI892
F0.45361666277730095
sI893
F0.47202845654375875
sI894
F0.45361666277730095
sI895
F0.3326815790962817
sI896
F0.41581527421252584
sI897
F0.4129272819483681
sI898
F0.4129272819483681
sI899
F0.45361666277730095
sI900
F0.4129272819483681
sI901
F0.2474499597722944
sI902
F0.4129272819483681
sI903
F0.45033138132564293
sI904
F0.45033138132564293
sI905
F0.27742038327309726
sI906
F0.4696465245950031
sI907
F0.28161142155326235
sI908
F0.32616092016126796
sI909
F0.45361666277730095
sI910
F0.3073688502519994
sI911
F0.5244309007361362
sI912
F0.4562672154362555
sI913
F0.41733817537810564
sI914
F0.33162972469144164
sI915
F0.26145644220753367
sI916
F0.37115770482588045
sI917
F0.4295919907658751
sI918
F0.3038265607501918
sI919
F0.37115770482588045
sI920
F0.32967648788757276
sI921
F0.5244309007361362
sI922
F0.5023561838748253
sI923
F0.37115770482588045
sI924
F0.3645982614023189
sI925
F0.5170770444816605
sI926
F0.2784870916954602
sI927
F0.4312139171803354
sI928
F0.45361666277730095
sI929
F0.45361666277730095
sI930
F0.45361666277730095
sI931
F0.31212498691456786
sI932
F0.37115770482588045
sI933
F0.2739783215095572
sI934
F0.3147921844476548
sI935
F0.31815495225963436
sI936
F0.27769021229135443
sI937
F0.272954092584186
sI938
F0.32967648788757276
sI939
F0.26145644220753367
sI940
F0.3718607659873502
sI941
F0.2866017972133953
sI942
F0.2911841845665237
sI943
F0.37115770482588045
sI944
F0.3693938630762921
sI945
F0.4295919907658751
sI946
F0.2876349046992291
sI947
F0.274592626548707
sI948
F0.3029152791078141
sI949
F0.30183730432932726
sI950
F0.2996995446835124
sI951
F0.3038265607501918
sI952
F0.32616092016126796
sI953
F0.3029152791078141
sI954
F0.5244309007361362
sI955
F0.5023561838748253
sI956
F0.37115770482588045
sI957
F0.32967648788757276
sI958
F0.5170770444816605
sI959
F0.2784870916954602
sI960
F0.37115770482588045
sI961
F0.3645982614023189
sI962
F0.37115770482588045
sI963
F0.4295919907658751
sI964
F0.29018839535827284
sI965
F0.24870979686334152
sI966
F0.36506213000212273
sI967
F0.4164948977365525
sI968
F0.44346984750122836
sI969
F0.37115770482588045
sI970
F0.4132805395094745
sI971
F0.43528047903360373
sI972
F0.42843823789397756
sI973
F0.45945707462876634
sI974
F0.483081091497028
sI975
F0.28255591168573113
sI976
F0.31815495225963436
sI977
F0.45361666277730095
sI978
F0.47202845654375875
sI979
F0.41581527421252584
sI980
F0.3326815790962817
sI981
F0.440634367714651
sI982
F0.37115770482588045
sI983
F0.45361666277730095
sI984
F0.4072789780273198
sI985
F0.3224100297338033
sI986
F0.4015887645544022
sI987
F0.4129272819483681
sI988
F0.2474499597722944
sI989
F0.45033138132564293
sI990
F0.45033138132564293
sI991
F0.4129272819483681
sI992
F0.4129272819483681
sI993
F0.4129272819483681
sI994
F0.45361666277730095
sI995
F0.37115770482588045
sI996
F0.2833018101435445
sI997
F0.4132805395094745
sI998
F0.37115770482588045
sI999
F0.26838087449251796
sI1000
F0.37948950212186017
sI1001
F0.38413876753097853
sI1002
F0.3866327916892876
sI1003
F0.37115770482588045
sI1004
F0.4767357627510898
sI1005
F0.29867215939518227
sI1006
F0.3561246052268552
sI1007
F0.45361666277730095
sI1008
F0.3139463060892092
sI1009
F0.2571428571428571
sI1010
F0.3319561049347182
sI1011
F0.48201991606354083
sI1012
F0.3411926157302325
sI1013
F0.3370155390968863
sI1014
F0.26145644220753367
sI1015
F0.3168252329511417
sI1016
F0.43528047903360373
sI1017
F0.489439282912941
sI1018
F0.4132805395094745
sI1019
F0.45945707462876634
sI1020
F0.483081091497028
sI1021
F0.28255591168573113
sI1022
F0.31815495225963436
sI1023
F0.37115770482588045
sI1024
F0.4132805395094745
sI1025
F0.43528047903360373
sI1026
F0.42843823789397756
sI1027
F0.4164948977365525
sI1028
F0.44346984750122836
sI1029
F0.45361666277730095
sI1030
F0.44346984750122836
sI1031
F0.31770274423240347
sI1032
F0.37115770482588045
sI1033
F0.38483959275865537
sI1034
F0.37115770482588045
sI1035
F0.37115770482588045
sI1036
F0.41733817537810564
sI1037
F0.3503192145692992
sI1038
F1.0
sI1039
F0.37115770482588045
sI1040
F0.45361666277730095
sI1041
F0.3425137653525856
sI1042
F0.45361666277730095
sI1043
F0.2779153614450123
sI1044
F0.30816192530855685
sI1045
F0.4034320561681314
sI1046
F0.28598175746221494
sI1047
F0.37115770482588045
sI1048
F0.319768391700479
sI1049
F0.26145644220753367
sI1050
F0.273487944254197
sI1051
F0.28252964232226613
sI1052
F0.26145644220753367
sI1053
F0.32776719330987586
sI1054
F0.38413876753097853
sI1055
F0.26145644220753367
sI1056
F0.3038265607501918
sI1057
F0.3225156385915272
sI1058
F0.32967648788757276
sI1059
F0.3866327916892876
sI1060
F0.3950634495070864
sI1061
F0.45033138132564293
sI1062
F0.39080168787570935
sI1063
F0.3911042191089364
sI1064
F0.3645982614023189
sI1065
F0.4387827655326121
sI1066
F0.4387827655326121
sI1067
F0.27972373122970084
sI1068
F0.37115770482588045
sI1069
F0.5244309007361362
sI1070
F0.317801018682427
sI1071
F0.4295919907658751
sI1072
F0.3073688502519994
sI1073
F0.3319561049347182
sI1074
F0.32967648788757276
sI1075
F0.5170770444816605
sI1076
F0.3147921844476548
sI1077
F0.4312139171803354
sI1078
F0.5244309007361362
sI1079
F0.45361666277730095
sI1080
F0.25556483811043473
sI1081
F0.37115770482588045
sI1082
F0.37115770482588045
sI1083
F0.37115770482588045
sI1084
F0.38413876753097853
sI1085
F0.37948950212186017
sI1086
F0.26838087449251796
sI1087
F0.37115770482588045
sI1088
F0.29867215939518227
sI1089
F0.4767357627510898
sI1090
F0.37115770482588045
sI1091
F0.3866327916892876
sI1092
F0.45361666277730095
sI1093
F0.3561246052268552
sI1094
F0.28718577658216576
sI1095
F0.26145644220753367
sI1096
F0.287876548173666
sI1097
F0.37115770482588045
sI1098
F0.36866297825341776
sI1099
F0.4551735588700075
sI1100
F0.3265796510486626
sI1101
F0.30279507463197763
sI1102
F0.5319853951676884
sI1103
F0.45361666277730095
sI1104
F0.3224100297338033
sI1105
F0.4015887645544022
sI1106
F0.45361666277730095
sI1107
F0.47202845654375875
sI1108
F0.41581527421252584
sI1109
F0.3326815790962817
sI1110
F0.440634367714651
sI1111
F0.37115770482588045
sI1112
F0.45361666277730095
sI1113
F0.4072789780273198
sI1114
F0.322724081132214
sI1115
F0.2817818446082542
sI1116
F0.2932491162341597
sI1117
F0.32003278410627567
sI1118
F0.2671899155785355
sI1119
F0.3065571976443062
sI1120
F0.32772084205051366
sI1121
F0.35219196180349166
sI1122
F0.34613743624806204
sI1123
F0.3626838075138605
sI1124
F0.36866297825341776
sI1125
F0.4551735588700075
sI1126
F0.3265796510486626
sI1127
F0.30279507463197763
sI1128
F0.28718577658216576
sI1129
F0.26145644220753367
sI1130
F0.3645982614023189
sI1131
F0.3911042191089364
sI1132
F0.317801018682427
sI1133
F0.5244309007361362
sI1134
F0.3073688502519994
sI1135
F0.4295919907658751
sI1136
F0.4387827655326121
sI1137
F0.4387827655326121
sI1138
F0.5319853951676884
sI1139
F0.45361666277730095
sI1140
F0.4072789780273198
sI1141
F0.45361666277730095
sI1142
F0.37115770482588045
sI1143
F0.440634367714651
sI1144
F0.3326815790962817
sI1145
F0.41581527421252584
sI1146
F0.47202845654375875
sI1147
F0.45361666277730095
sI1148
F0.4015887645544022
sI1149
F0.3224100297338033
sI1150
F0.37115770482588045
sI1151
F0.37115770482588045
sI1152
F0.3029152791078141
sI1153
F0.32616092016126796
sI1154
F0.36506213000212273
sI1155
F0.26145644220753367
sI1156
F0.3029152791078141
sI1157
F0.274592626548707
sI1158
F0.2996995446835124
sI1159
F0.30183730432932726
sI1160
F0.37115770482588045
sI1161
F0.37115770482588045
sI1162
F0.41733817537810564
sI1163
F0.3503192145692992
sI1164
F0.44346984750122836
sI1165
F0.31770274423240347
sI1166
F0.37115770482588045
sI1167
F0.38483959275865537
sI1168
F1.0
sI1169
F0.37115770482588045
sI1170
F0.45361666277730095
sI1171
F0.3425137653525856
sI1172
F0.30816192530855685
sI1173
F0.2779153614450123
sI1174
F0.2862749095484308
sI1175
F0.4034320561681314
sI1176
F0.319768391700479
sI1177
F0.37115770482588045
sI1178
F0.273487944254197
sI1179
F0.26145644220753367
sI1180
F0.37115770482588045
sI1181
F0.2698774048154851
sI1182
F0.37115770482588045
sI1183
F0.4312139171803354
sI1184
F0.37115770482588045
sI1185
F0.2739783215095572
sI1186
F0.382424992293809
sI1187
F0.32967648788757276
sI1188
F0.272954092584186
sI1189
F0.2876349046992291
sI1190
F0.4295919907658751
sI1191
F0.3693938630762921
sI1192
F0.37115770482588045
sI1193
F0.2911841845665237
sI1194
F0.2866017972133953
sI1195
F0.3718607659873502
sI1196
F0.26145644220753367
sI1197
F0.34993136549760295
sI1198
F0.34993136549760295
sI1199
F0.5619977923424482
sI1200
F0.3752796835792663
sI1201
F0.31493822894784274
sI1202
F0.5461515837522412
sI1203
F0.42136951714885507
sI1204
F0.4065529905442052
sI1205
F0.35732708453706935
sI1206
F0.3867677261370614
sI1207
F0.42830428331152925
sI1208
F0.3323972879414599
sI1209
F0.4065529905442052
sI1210
F0.3867677261370614
sI1211
F0.3597839312902897
sI1212
F0.42136951714885507
sI1213
F0.42136951714885507
sI1214
F0.3919716438594001
sI1215
F0.32842772368307355
sI1216
F0.4396445130303614
sI1217
F0.4034320561681314
sI1218
F0.3645982614023189
sI1219
F0.3911042191089364
sI1220
F0.28598175746221494
sI1221
F0.3073688502519994
sI1222
F0.4295919907658751
sI1223
F0.317801018682427
sI1224
F0.5244309007361362
sI1225
F0.37115770482588045
sI1226
F0.29257688265398185
sI1227
F0.4387827655326121
sI1228
F0.4387827655326121
sI1229
F0.319768391700479
sI1230
F0.37115770482588045
sI1231
F0.3380287813140525
sI1232
F0.2779153614450123
sI1233
F0.30816192530855685
sI1234
F0.26145644220753367
sI1235
F0.273487944254197
sI1236
F0.2904258863302487
sI1237
F0.3842181711332705
sI1238
F0.2929569222783665
sI1239
F0.32718865675179915
sI1240
F0.3573268843130911
sI1241
F0.25946041374872586
sI1242
F0.41330977001072583
sI1243
F0.3203782006919004
sI1244
F0.39299821985360767
sI1245
F0.35344357768697415
sI1246
F0.41733817537810564
sI1247
F0.33162972469144164
sI1248
F0.5244309007361362
sI1249
F0.4562672154362555
sI1250
F0.45361666277730095
sI1251
F0.3073688502519994
sI1252
F0.28161142155326235
sI1253
F0.32616092016126796
sI1254
F0.27742038327309726
sI1255
F0.4696465245950031
sI1256
F0.3073688502519994
sI1257
F0.4295919907658751
sI1258
F0.317801018682427
sI1259
F0.5244309007361362
sI1260
F0.37115770482588045
sI1261
F0.27972373122970084
sI1262
F0.4387827655326121
sI1263
F0.4387827655326121
sI1264
F0.3425137653525856
sI1265
F0.3645982614023189
sI1266
F0.3911042191089364
sI1267
F0.45033138132564293
sI1268
F0.45033138132564293
sI1269
F0.2474499597722944
sI1270
F0.4129272819483681
sI1271
F0.45361666277730095
sI1272
F0.4129272819483681
sI1273
F0.4129272819483681
sI1274
F0.4129272819483681
sI1275
F0.2833018101435445
sI1276
F0.37115770482588045
sI1277
F0.30279507463197763
sI1278
F0.48201991606354083
sI1279
F0.3319561049347182
sI1280
F0.2571428571428571
sI1281
F0.3139463060892092
sI1282
F0.3168252329511417
sI1283
F0.26145644220753367
sI1284
F0.3370155390968863
sI1285
F0.3411926157302325
sI1286
F0.489439282912941
sI1287
F0.43528047903360373
sI1288
F0.32967648788757276
sI1289
F0.37115770482588045
sI1290
F0.36866297825341776
sI1291
F0.3693938630762921
sI1292
F0.45361666277730095
sI1293
F0.5319853951676884
sI1294
F0.27972373122970084
sI1295
F0.37115770482588045
sI1296
F0.3319561049347182
sI1297
F0.48201991606354083
sI1298
F0.3139463060892092
sI1299
F0.2571428571428571
sI1300
F0.26145644220753367
sI1301
F0.3168252329511417
sI1302
F0.3411926157302325
sI1303
F0.3370155390968863
sI1304
F0.3911042191089364
sI1305
F0.43528047903360373
sI1306
F0.489439282912941
sI1307
F0.3645982614023189
sI1308
F0.45361666277730095
sI1309
F0.4072789780273198
sI1310
F0.440634367714651
sI1311
F0.37115770482588045
sI1312
F0.41581527421252584
sI1313
F0.3326815790962817
sI1314
F0.45361666277730095
sI1315
F0.47202845654375875
sI1316
F0.3224100297338033
sI1317
F0.4015887645544022
sI1318
F0.273487944254197
sI1319
F0.26145644220753367
sI1320
F0.4387827655326121
sI1321
F0.4387827655326121
sI1322
F0.37115770482588045
sI1323
F0.27972373122970084
sI1324
F0.317801018682427
sI1325
F0.5244309007361362
sI1326
F0.3073688502519994
sI1327
F0.4295919907658751
sI1328
F0.3645982614023189
sI1329
F0.3911042191089364
sI1330
F0.37115770482588045
sI1331
F0.26145644220753367
sI1332
F0.3380287813140525
sI1333
F0.37115770482588045
sI1334
F0.41733817537810564
sI1335
F0.34790897969467577
sI1336
F0.2474499597722944
sI1337
F0.2672375831423503
sI1338
F0.37115770482588045
sI1339
F0.29257688265398185
sI1340
F0.5244309007361362
sI1341
F0.5023561838748253
sI1342
F0.37115770482588045
sI1343
F0.32967648788757276
sI1344
F0.5170770444816605
sI1345
F0.2784870916954602
sI1346
F0.37115770482588045
sI1347
F0.3645982614023189
sI1348
F0.37115770482588045
sI1349
F0.4295919907658751
sI1350
F0.4072789780273198
sI1351
F0.29369900872518545
sI1352
F0.32616092016126796
sI1353
F0.28161142155326235
sI1354
F0.44346984750122836
sI1355
F0.41733817537810564
sI1356
F0.41733817537810564
sI1357
F0.32967648788757276
sI1358
F0.3154422296373848
sI1359
F0.32967648788757276
sI1360
F0.3319561049347182
sI1361
F0.48201991606354083
sI1362
F0.3139463060892092
sI1363
F0.2571428571428571
sI1364
F0.26145644220753367
sI1365
F0.3168252329511417
sI1366
F0.3411926157302325
sI1367
F0.3370155390968863
sI1368
F0.43528047903360373
sI1369
F0.489439282912941
sI1370
F0.37115770482588045
sI1371
F0.4295919907658751
sI1372
F0.5244309007361362
sI1373
F0.5023561838748253
sI1374
F0.37115770482588045
sI1375
F0.32967648788757276
sI1376
F0.5170770444816605
sI1377
F0.2784870916954602
sI1378
F0.37115770482588045
sI1379
F0.3645982614023189
sI1380
F0.26145644220753367
sI1381
F0.37115770482588045
sI1382
F0.34790897969467577
sI1383
F0.41733817537810564
sI1384
F0.37115770482588045
sI1385
F0.3380287813140525
sI1386
F0.29257688265398185
sI1387
F0.37115770482588045
sI1388
F0.2672375831423503
sI1389
F0.2474499597722944
sI1390
F0.4396445130303614
sI1391
F0.2987744480764127
sI1392
F0.42830428331152925
sI1393
F0.3425143025883558
sI1394
F0.42136951714885507
sI1395
F0.3867677261370614
sI1396
F0.3867677261370614
sI1397
F0.2678621580303678
sI1398
F0.42136951714885507
sI1399
F0.34993136549760295
sI1400
F0.3867677261370614
sI1401
F0.29625705804827446
sI1402
F0.34498710470911087
sI1403
F0.3323972879414599
sI1404
F0.46042710455989394
sI1405
F0.42136951714885507
sI1406
F0.5335674458777655
sI1407
F0.42830428331152925
sI1408
F0.40830027091492016
sI1409
F0.3597839312902897
sI1410
F0.4015887645544022
sI1411
F0.3224100297338033
sI1412
F0.4072789780273198
sI1413
F0.45361666277730095
sI1414
F0.37115770482588045
sI1415
F0.440634367714651
sI1416
F0.3326815790962817
sI1417
F0.41581527421252584
sI1418
F0.47202845654375875
sI1419
F0.45361666277730095
sI1420
F0.5170770444816605
sI1421
F0.2784870916954602
sI1422
F0.37115770482588045
sI1423
F0.3645982614023189
sI1424
F0.5244309007361362
sI1425
F0.5023561838748253
sI1426
F0.37115770482588045
sI1427
F0.32967648788757276
sI1428
F0.37115770482588045
sI1429
F0.4295919907658751
sI1430
F0.40994838545532086
sI1431
F0.43528047903360373
sI1432
F0.489439282912941
sI1433
F0.3139463060892092
sI1434
F0.2571428571428571
sI1435
F0.3319561049347182
sI1436
F0.48201991606354083
sI1437
F0.3411926157302325
sI1438
F0.3370155390968863
sI1439
F0.26145644220753367
sI1440
F0.3168252329511417
sI1441
F0.2739783215095572
sI1442
F0.46042710455989394
sI1443
F0.3943977821077957
sI1444
F0.41733817537810564
sI1445
F0.3503192145692992
sI1446
F0.37115770482588045
sI1447
F0.37115770482588045
sI1448
F0.37115770482588045
sI1449
F0.38483959275865537
sI1450
F0.44346984750122836
sI1451
F0.31770274423240347
sI1452
F1.0
sI1453
F0.37115770482588045
sI1454
F0.2724144547389476
sI1455
F0.3357329742132884
sI1456
F0.45361666277730095
sI1457
F0.4562672154362555
sI1458
F0.4295919907658751
sI1459
F0.37115770482588045
sI1460
F0.42843823789397756
sI1461
F0.4312139171803354
sI1462
F0.37115770482588045
sI1463
F0.37115770482588045
sI1464
F0.37948950212186017
sI1465
F0.38413876753097853
sI1466
F0.37115770482588045
sI1467
F0.26838087449251796
sI1468
F0.4767357627510898
sI1469
F0.29867215939518227
sI1470
F0.3866327916892876
sI1471
F0.37115770482588045
sI1472
F0.3561246052268552
sI1473
F0.45361666277730095
sI1474
F0.2724144547389476
sI1475
F0.3357329742132884
sI1476
F0.37115770482588045
sI1477
F0.37115770482588045
sI1478
F0.42843823789397756
sI1479
F0.4312139171803354
sI1480
F0.4295919907658751
sI1481
F0.37115770482588045
sI1482
F0.45361666277730095
sI1483
F0.4562672154362555
sI1484
F0.273487944254197
sI1485
F0.32967648788757276
sI1486
F0.3154422296373848
sI1487
F0.32967648788757276
sI1488
F0.41733817537810564
sI1489
F0.41733817537810564
sI1490
F0.44346984750122836
sI1491
F0.30183730432932726
sI1492
F0.32616092016126796
sI1493
F0.29369900872518545
sI1494
F0.4072789780273198
sI1495
F0.2724144547389476
sI1496
F0.3357329742132884
sI1497
F0.45945707462876634
sI1498
F0.483081091497028
sI1499
F0.28255591168573113
sI1500
F0.31815495225963436
sI1501
F0.37115770482588045
sI1502
F0.4132805395094745
sI1503
F0.43528047903360373
sI1504
F0.42843823789397756
sI1505
F0.4164948977365525
sI1506
F0.44346984750122836
sI1507
F0.33162972469144164
sI1508
F0.41733817537810564
sI1509
F0.4562672154362555
sI1510
F0.5244309007361362
sI1511
F0.3073688502519994
sI1512
F0.45361666277730095
sI1513
F0.32616092016126796
sI1514
F0.28161142155326235
sI1515
F0.4696465245950031
sI1516
F0.27742038327309726
sI1517
F0.43528047903360373
sI1518
F0.489439282912941
sI1519
F0.26145644220753367
sI1520
F0.3168252329511417
sI1521
F0.3411926157302325
sI1522
F0.3370155390968863
sI1523
F0.3319561049347182
sI1524
F0.48201991606354083
sI1525
F0.3139463060892092
sI1526
F0.2571428571428571
sI1527
F0.26145644220753367
sI1528
F0.3718607659873502
sI1529
F0.2866017972133953
sI1530
F0.2911841845665237
sI1531
F0.37115770482588045
sI1532
F0.3693938630762921
sI1533
F0.4295919907658751
sI1534
F0.2876349046992291
sI1535
F0.272954092584186
sI1536
F0.32967648788757276
sI1537
F0.45361666277730095
sI1538
F0.45361666277730095
sI1539
F0.37115770482588045
sI1540
F0.31212498691456786
sI1541
F0.3147921844476548
sI1542
F0.2739783215095572
sI1543
F0.27769021229135443
sI1544
F0.31815495225963436
sI1545
F0.45361666277730095
sI1546
F0.4312139171803354
sI1547
F0.37115770482588045
sI1548
F0.26145644220753367
sI1549
F0.2474499597722944
sI1550
F0.2672375831423503
sI1551
F0.37115770482588045
sI1552
F0.29257688265398185
sI1553
F0.3380287813140525
sI1554
F0.37115770482588045
sI1555
F0.41733817537810564
sI1556
F0.34790897969467577
sI1557
F0.3645982614023189
sI1558
F0.3911042191089364
sI1559
F0.317801018682427
sI1560
F0.5244309007361362
sI1561
F0.3073688502519994
sI1562
F0.4295919907658751
sI1563
F0.4387827655326121
sI1564
F0.4387827655326121
sI1565
F0.37115770482588045
sI1566
F0.27972373122970084
sI1567
F0.30183730432932726
sI1568
F0.2996995446835124
sI1569
F0.274592626548707
sI1570
F0.3029152791078141
sI1571
F0.26145644220753367
sI1572
F0.36506213000212273
sI1573
F0.32616092016126796
sI1574
F0.3029152791078141
sI1575
F0.37115770482588045
sI1576
F0.37115770482588045
sI1577
F0.37115770482588045
sI1578
F0.37115770482588045
sI1579
F0.4295919907658751
sI1580
F0.5244309007361362
sI1581
F0.5023561838748253
sI1582
F0.37115770482588045
sI1583
F0.32967648788757276
sI1584
F0.5170770444816605
sI1585
F0.2784870916954602
sI1586
F0.37115770482588045
sI1587
F0.3645982614023189
sI1588
F0.3867677261370614
sI1589
F0.3224879457063428
sI1590
F0.3867677261370614
sI1591
F0.3597839312902897
sI1592
F0.2987744480764127
sI1593
F0.32118253168214367
sI1594
F0.38191983133307955
sI1595
F0.3867677261370614
sI1596
F0.35732708453706935
sI1597
F0.4064343887829103
sI1598
F0.4396445130303614
sI1599
F0.35732708453706935
sI1600
F0.2547571530785736
sI1601
F0.3867677261370614
sI1602
F0.46042710455989394
sI1603
F0.46042710455989394
sI1604
F0.28255591168573113
sI1605
F0.31815495225963436
sI1606
F0.45945707462876634
sI1607
F0.483081091497028
sI1608
F0.43528047903360373
sI1609
F0.42843823789397756
sI1610
F0.37115770482588045
sI1611
F0.4132805395094745
sI1612
F0.4164948977365525
sI1613
F0.44346984750122836
sI1614
F0.27972373122970084
sI1615
F0.4312139171803354
sI1616
F0.37115770482588045
sI1617
F0.3503192145692992
sI1618
F0.37938708953656747
sI1619
F0.30547893929483627
sI1620
F0.36860240221090024
sI1621
F0.3842181711332705
sI1622
F0.3350997759312792
sI1623
F0.3048955289504205
sI1624
F0.29980008594887875
sI1625
F0.43095003073694443
sI1626
F0.34013881016569547
sI1627
F0.36841378874316066
sI1628
F0.3168252329511417
sI1629
F0.26145644220753367
sI1630
F0.30816192530855685
sI1631
F0.37115770482588045
sI1632
F0.2779153614450123
sI1633
F0.37115770482588045
sI1634
F0.5319853951676884
sI1635
F0.45361666277730095
sI1636
F0.3265796510486626
sI1637
F0.30279507463197763
sI1638
F0.36866297825341776
sI1639
F0.4551735588700075
sI1640
F0.287876548173666
sI1641
F0.37115770482588045
sI1642
F0.28718577658216576
sI1643
F0.26145644220753367
sI1644
F0.273487944254197
sI1645
F0.26145644220753367
sI1646
F0.4164948977365525
sI1647
F0.44346984750122836
sI1648
F0.28255591168573113
sI1649
F0.31815495225963436
sI1650
F0.45945707462876634
sI1651
F0.483081091497028
sI1652
F0.43528047903360373
sI1653
F0.42843823789397756
sI1654
F0.37115770482588045
sI1655
F0.4132805395094745
sI1656
F0.31770274423240347
sI1657
F0.5319853951676884
sI1658
F0.45361666277730095
sI1659
F0.287876548173666
sI1660
F0.37115770482588045
sI1661
F0.28718577658216576
sI1662
F0.26145644220753367
sI1663
F0.3265796510486626
sI1664
F0.30279507463197763
sI1665
F0.36866297825341776
sI1666
F0.4551735588700075
sI1667
F0.4295919907658751
sI1668
F0.37115770482588045
sI1669
F0.5023561838748253
sI1670
F0.5244309007361362
sI1671
F0.32967648788757276
sI1672
F0.37115770482588045
sI1673
F0.2784870916954602
sI1674
F0.5170770444816605
sI1675
F0.3645982614023189
sI1676
F0.37115770482588045
sI1677
F0.4295919907658751
sI1678
F0.37115770482588045
sI1679
F0.5023561838748253
sI1680
F0.5244309007361362
sI1681
F0.32967648788757276
sI1682
F0.37115770482588045
sI1683
F0.2784870916954602
sI1684
F0.5170770444816605
sI1685
F0.3645982614023189
sI1686
F0.37115770482588045
sI1687
F0.3357329742132884
sI1688
F0.2724144547389476
sI1689
F0.4312139171803354
sI1690
F0.42843823789397756
sI1691
F0.37115770482588045
sI1692
F0.37115770482588045
sI1693
F0.4562672154362555
sI1694
F0.45361666277730095
sI1695
F0.37115770482588045
sI1696
F0.4295919907658751
sI1697
F0.26145644220753367
sI1698
F0.273487944254197
sI1699
F0.32967648788757276
sI1700
F0.272954092584186
sI1701
F0.3693938630762921
sI1702
F0.37115770482588045
sI1703
F0.37115770482588045
sI1704
F0.319768391700479
sI1705
F0.3718607659873502
sI1706
F0.26145644220753367
sI1707
F0.2911841845665237
sI1708
F0.2866017972133953
sI1709
F0.37115770482588045
sI1710
F0.2996995446835124
sI1711
F0.45361666277730095
sI1712
F0.2862749095484308
sI1713
F0.2698774048154851
sI1714
F0.37115770482588045
sI1715
F0.3943977821077957
sI1716
F0.2530917667913436
sI1717
F0.2739783215095572
sI1718
F0.37115770482588045
sI1719
F0.4312139171803354
sI1720
F0.37115770482588045
sI1721
F0.26145644220753367
sI1722
F0.28252964232226613
sI1723
F0.3038265607501918
sI1724
F0.26145644220753367
sI1725
F0.38413876753097853
sI1726
F0.32776719330987586
sI1727
F0.382424992293809
sI1728
F0.3866327916892876
sI1729
F0.32967648788757276
sI1730
F0.3225156385915272
sI1731
F0.28598175746221494
sI1732
F0.45361666277730095
sI1733
F0.45361666277730095
sI1734
F0.3561246052268552
sI1735
F0.38413876753097853
sI1736
F0.37948950212186017
sI1737
F0.26838087449251796
sI1738
F0.37115770482588045
sI1739
F0.29867215939518227
sI1740
F0.4767357627510898
sI1741
F0.37115770482588045
sI1742
F0.3866327916892876
sI1743
F0.2530917667913436
sI1744
F0.3943977821077957
sI1745
F0.37115770482588045
sI1746
F0.37115770482588045
sI1747
F0.45361666277730095
sI1748
F0.5244309007361362
sI1749
F0.37115770482588045
sI1750
F0.25556483811043473
sI1751
F0.5170770444816605
sI1752
F0.32967648788757276
sI1753
F0.4312139171803354
sI1754
F0.3147921844476548
sI1755
F0.2474499597722944
sI1756
F0.4129272819483681
sI1757
F0.37115770482588045
sI1758
F0.45033138132564293
sI1759
F0.4129272819483681
sI1760
F0.4129272819483681
sI1761
F0.45361666277730095
sI1762
F0.4129272819483681
sI1763
F0.3029152791078141
sI1764
F0.274592626548707
sI1765
F0.2996995446835124
sI1766
F0.30183730432932726
sI1767
F0.3029152791078141
sI1768
F0.32616092016126796
sI1769
F0.36506213000212273
sI1770
F0.26145644220753367
sI1771
F0.3378139308618508
sI1772
F0.5619977923424482
sI1773
F0.3867677261370614
sI1774
F0.40830027091492016
sI1775
F0.3029152791078141
sI1776
F0.4065529905442052
sI1777
F0.3597839312902897
sI1778
F0.46042710455989394
sI1779
F0.3867677261370614
sI1780
F0.3323972879414599
sI1781
F0.3867677261370614
sI1782
F0.2318695085351021
sI1783
F0.4065529905442052
sI1784
F0.2996995446835124
sI1785
F0.32616092016126796
sI1786
F0.382424992293809
sI1787
F0.3225156385915272
sI1788
F0.32967648788757276
sI1789
F0.32018567629113415
sI1790
F0.30419035171657133
sI1791
F0.3164383916664765
sI1792
F0.3211194477988694
sI1793
F0.30609800353813155
sI1794
F0.29634444051805736
sI1795
F0.29634444051805736
sI1796
F0.3198579411052218
sI1797
F0.29390890713638906
sI1798
F0.29018465167223484
sI1799
F0.348224383226883
sI1800
F0.32793273537805706
sI1801
F0.35243280327553217
sI1802
F0.4646856082472093
sI1803
F0.2693084859179567
sI1804
F0.4118839816349346
sI1805
F0.4741608956929397
sI1806
F0.3630557778423479
sI1807
F0.42648981692951643
sI1808
F0.3994251134372612
sI1809
F0.5319853951676884
sI1810
F0.45361666277730095
sI1811
F0.287876548173666
sI1812
F0.37115770482588045
sI1813
F0.28718577658216576
sI1814
F0.26145644220753367
sI1815
F0.3265796510486626
sI1816
F0.30279507463197763
sI1817
F0.36866297825341776
sI1818
F0.4551735588700075
sI1819
F0.26825662193065725
sI1820
F0.27168734792640065
sI1821
F0.5459136123325562
sI1822
F0.29631844749096964
sI1823
F0.3313998383601727
sI1824
F0.42796897366846387
sI1825
F0.393433502692053
sI1826
F0.44943388935926887
sI1827
F0.324204045018606
sI1828
F0.24816291400036175
sI1829
F0.37115770482588045
sI1830
F0.37115770482588045
sI1831
F0.42843823789397756
sI1832
F0.4312139171803354
sI1833
F0.4295919907658751
sI1834
F0.37115770482588045
sI1835
F0.45361666277730095
sI1836
F0.4562672154362555
sI1837
F0.2724144547389476
sI1838
F0.3357329742132884
sI1839
F0.3357329742132884
sI1840
F0.2724144547389476
sI1841
F0.4562672154362555
sI1842
F0.45361666277730095
sI1843
F0.37115770482588045
sI1844
F0.4295919907658751
sI1845
F0.4312139171803354
sI1846
F0.42843823789397756
sI1847
F0.37115770482588045
sI1848
F0.37115770482588045
sI1849
F0.26145644220753367
sI1850
F0.37115770482588045
sI1851
F0.41733817537810564
sI1852
F0.33162972469144164
sI1853
F0.28161142155326235
sI1854
F0.32616092016126796
sI1855
F0.27742038327309726
sI1856
F0.4696465245950031
sI1857
F0.5244309007361362
sI1858
F0.4562672154362555
sI1859
F0.29257688265398185
sI1860
F0.3073688502519994
sI1861
F0.31212498691456786
sI1862
F0.273487944254197
sI1863
F0.43528047903360373
sI1864
F0.42843823789397756
sI1865
F0.37115770482588045
sI1866
F0.4132805395094745
sI1867
F0.28255591168573113
sI1868
F0.31815495225963436
sI1869
F0.45945707462876634
sI1870
F0.483081091497028
sI1871
F0.4164948977365525
sI1872
F0.44346984750122836
sI1873
F0.37115770482588045
sI1874
F0.37115770482588045
sI1875
F0.3147921844476548
sI1876
F0.4312139171803354
sI1877
F0.32967648788757276
sI1878
F0.5170770444816605
sI1879
F0.25556483811043473
sI1880
F0.37115770482588045
sI1881
F0.5244309007361362
sI1882
F0.45361666277730095
sI1883
F0.38483959275865537
sI1884
F0.45361666277730095
sI1885
F0.41733817537810564
sI1886
F0.33162972469144164
sI1887
F0.5244309007361362
sI1888
F0.4562672154362555
sI1889
F0.45361666277730095
sI1890
F0.3073688502519994
sI1891
F0.28161142155326235
sI1892
F0.32616092016126796
sI1893
F0.27742038327309726
sI1894
F0.4696465245950031
sI1895
F0.382424992293809
sI1896
F0.32776719330987586
sI1897
F0.489439282912941
sI1898
F0.28598175746221494
sI1899
F0.4129272819483681
sI1900
F0.4129272819483681
sI1901
F0.4129272819483681
sI1902
F0.45361666277730095
sI1903
F0.4129272819483681
sI1904
F0.2474499597722944
sI1905
F0.45033138132564293
sI1906
F0.45033138132564293
sI1907
F0.37115770482588045
sI1908
F0.2833018101435445
sI1909
F0.37115770482588045
sI1910
F1.0
sI1911
F0.29369900872518545
sI1912
F0.4072789780273198
sI1913
F0.32967648788757276
sI1914
F0.3154422296373848
sI1915
F0.32967648788757276
sI1916
F0.41733817537810564
sI1917
F0.41733817537810564
sI1918
F0.44346984750122836
sI1919
F0.30183730432932726
sI1920
F0.32616092016126796
sI1921
F0.26145644220753367
sI1922
F0.41733817537810564
sI1923
F0.32776719330987586
sI1924
F0.38413876753097853
sI1925
F0.3866327916892876
sI1926
F0.382424992293809
sI1927
F0.3225156385915272
sI1928
F0.32967648788757276
sI1929
F0.28252964232226613
sI1930
F0.26145644220753367
sI1931
F0.37115770482588045
sI1932
F0.29867215939518227
sI1933
F0.4767357627510898
sI1934
F0.37115770482588045
sI1935
F0.3866327916892876
sI1936
F0.38413876753097853
sI1937
F0.37948950212186017
sI1938
F0.26838087449251796
sI1939
F0.37115770482588045
sI1940
F0.45361666277730095
sI1941
F0.3561246052268552
sI1942
F0.38483959275865537
sI1943
F0.45945707462876634
sI1944
F0.483081091497028
sI1945
F0.28255591168573113
sI1946
F0.31815495225963436
sI1947
F0.37115770482588045
sI1948
F0.44346984750122836
sI1949
F0.43528047903360373
sI1950
F0.42843823789397756
sI1951
F0.4164948977365525
sI1952
F0.44346984750122836
sI1953
F0.3147921844476548
sI1954
F0.45361666277730095
sI1955
F0.47202845654375875
sI1956
F0.43528047903360373
sI1957
F0.489439282912941
sI1958
F0.3319561049347182
sI1959
F0.48201991606354083
sI1960
F0.3139463060892092
sI1961
F0.2571428571428571
sI1962
F0.26145644220753367
sI1963
F0.3168252329511417
sI1964
F0.3411926157302325
sI1965
F0.3370155390968863
sI1966
F0.47931869372352565
sI1967
F0.40830027091492016
sI1968
F0.40830027091492016
sI1969
F0.4933147548856006
sI1970
F0.45630912771544596
sI1971
F0.35732708453706935
sI1972
F0.3867677261370614
sI1973
F0.32118253168214367
sI1974
F0.3323972879414599
sI1975
F0.3867677261370614
sI1976
F0.4015887645544022
sI1977
F0.3224100297338033
sI1978
F0.4072789780273198
sI1979
F0.45361666277730095
sI1980
F0.37115770482588045
sI1981
F0.440634367714651
sI1982
F0.3326815790962817
sI1983
F0.41581527421252584
sI1984
F0.47202845654375875
sI1985
F0.45361666277730095
sI1986
F0.27398618980801753
sI1987
F0.2898719291606712
sI1988
F0.31097609530941395
sI1989
F0.3741817387356084
sI1990
F0.3313786649754363
sI1991
F0.3220258927310845
sI1992
F0.35210620831549705
sI1993
F0.3473229643818979
sI1994
F0.3028298245227748
sI1995
F0.29707751141622873
sI1996
F0.30279507463197763
sI1997
F0.3265796510486626
sI1998
F0.4551735588700075
sI1999
F1.0
sI2000
F0.37115770482588045
sI2001
F0.287876548173666
sI2002
F0.26145644220753367
sI2003
F0.28718577658216576
sI2004
F0.38483959275865537
sI2005
F0.37115770482588045
sI2006
F0.31770274423240347
sI2007
F0.44346984750122836
sI2008
F0.3503192145692992
sI2009
F0.41733817537810564
sI2010
F0.37115770482588045
sI2011
F0.37115770482588045
sI2012
F0.4504936564931199
sI2013
F0.5459136123325562
sI2014
F0.36088010711281504
sI2015
F0.30930623335143004
sI2016
F0.31010070086264274
sI2017
F0.27186041451789034
sI2018
F0.2947323446520732
sI2019
F0.35574197051512535
sI2020
F0.3936873895776164
sI2021
F0.2897034323871868
sI2022
F0.4294590498321902
sI2023
F0.3570682506738233
sI2024
F0.3884115910944171
sI2025
F0.35243280327553217
sI2026
F0.2865702787006714
sI2027
F0.3356597625021746
sI2028
F0.4300147864698426
sI2029
F0.4410408066357361
sI2030
F0.3350108465192263
sI2031
F0.30160479430960546
sI2032
F0.2698774048154851
sI2033
F0.37115770482588045
sI2034
F0.3943977821077957
sI2035
F0.27972373122970084
sI2036
F0.45945707462876634
sI2037
F0.2739783215095572
sI2038
F0.37115770482588045
sI2039
F0.4312139171803354
sI2040
F0.37115770482588045
sI2041
F0.37115770482588045
sI2042
F0.4295919907658751
sI2043
F0.37115770482588045
sI2044
F0.32967648788757276
sI2045
F0.5244309007361362
sI2046
F0.5023561838748253
sI2047
F0.37115770482588045
sI2048
F0.3645982614023189
sI2049
F0.5170770444816605
sI2050
F0.2784870916954602
sI2051
F0.3943977821077957
sI2052
F0.2530917667913436
sI2053
F0.2698774048154851
sI2054
F0.37115770482588045
sI2055
F0.489439282912941
sI2056
F0.43528047903360373
sI2057
F0.2739783215095572
sI2058
F0.37115770482588045
sI2059
F0.48201991606354083
sI2060
F0.3319561049347182
sI2061
F0.2571428571428571
sI2062
F0.3139463060892092
sI2063
F0.45361666277730095
sI2064
F0.2862749095484308
sI2065
F0.3370155390968863
sI2066
F0.3411926157302325
sI2067
F0.32616092016126796
sI2068
F0.3029152791078141
sI2069
F0.26145644220753367
sI2070
F0.36506213000212273
sI2071
F0.274592626548707
sI2072
F0.3029152791078141
sI2073
F0.30183730432932726
sI2074
F0.2996995446835124
sI2075
F0.37115770482588045
sI2076
F0.37115770482588045
sI2077
F0.274592626548707
sI2078
F0.3038265607501918
sI2079
F0.32776719330987586
sI2080
F0.38413876753097853
sI2081
F0.3866327916892876
sI2082
F0.3029152791078141
sI2083
F0.26145644220753367
sI2084
F0.36506213000212273
sI2085
F0.28252964232226613
sI2086
F0.26145644220753367
sI2087
F0.37115770482588045
sI2088
F0.37115770482588045
sI2089
F0.26145644220753367
sI2090
F0.37115770482588045
sI2091
F0.45361666277730095
sI2092
F0.45361666277730095
sI2093
F0.31815495225963436
sI2094
F0.27769021229135443
sI2095
F0.2739783215095572
sI2096
F0.3147921844476548
sI2097
F0.3425137653525856
sI2098
F0.45361666277730095
sI2099
F0.2779153614450123
sI2100
F0.30816192530855685
sI2101
F0.4034320561681314
sI2102
F0.28598175746221494
sI2103
F0.37115770482588045
sI2104
F0.319768391700479
sI2105
F0.2474499597722944
sI2106
F0.4129272819483681
sI2107
F0.45033138132564293
sI2108
F0.45033138132564293
sI2109
F0.4129272819483681
sI2110
F0.4129272819483681
sI2111
F0.45361666277730095
sI2112
F0.4129272819483681
sI2113
F0.2833018101435445
sI2114
F0.37115770482588045
sI2115
F0.31815495225963436
sI2116
F0.28255591168573113
sI2117
F0.483081091497028
sI2118
F0.2530917667913436
sI2119
F0.42843823789397756
sI2120
F0.43528047903360373
sI2121
F0.4132805395094745
sI2122
F0.37115770482588045
sI2123
F0.44346984750122836
sI2124
F0.4164948977365525
sI2125
F0.45361666277730095
sI2126
F0.2862749095484308
sI2127
F0.3693938630762921
sI2128
F0.41733817537810564
sI2129
F0.33162972469144164
sI2130
F0.37115770482588045
sI2131
F0.28161142155326235
sI2132
F0.32616092016126796
sI2133
F0.27742038327309726
sI2134
F0.4696465245950031
sI2135
F0.5244309007361362
sI2136
F0.4562672154362555
sI2137
F0.45361666277730095
sI2138
F0.3073688502519994
sI2139
F0.272954092584186
sI2140
F0.32967648788757276
sI2141
F0.37115770482588045
sI2142
F0.3693938630762921
sI2143
F0.4295919907658751
sI2144
F0.2876349046992291
sI2145
F0.26145644220753367
sI2146
F0.3718607659873502
sI2147
F0.2866017972133953
sI2148
F0.2911841845665237
sI2149
F0.32967648788757276
sI2150
F0.272954092584186
sI2151
F0.37115770482588045
sI2152
F0.37115770482588045
sI2153
F0.37115770482588045
sI2154
F0.4295919907658751
sI2155
F0.4562672154362555
sI2156
F0.45361666277730095
sI2157
F0.37115770482588045
sI2158
F0.37115770482588045
sI2159
F0.4312139171803354
sI2160
F0.42843823789397756
sI2161
F0.3357329742132884
sI2162
F0.2724144547389476
sI2163
F0.3357329742132884
sI2164
F0.2724144547389476
sI2165
F0.317801018682427
sI2166
F0.5244309007361362
sI2167
F0.3073688502519994
sI2168
F0.4295919907658751
sI2169
F0.37115770482588045
sI2170
F0.31212498691456786
sI2171
F0.37115770482588045
sI2172
F0.27972373122970084
sI2173
F0.34498710470911087
sI2174
F0.27928915798447274
sI2175
F0.32118253168214367
sI2176
F0.35732708453706935
sI2177
F0.34993136549760295
sI2178
F0.32118253168214367
sI2179
F0.45361666277730095
sI2180
F0.4312139171803354
sI2181
F0.37115770482588045
sI2182
F0.32967648788757276
sI2183
F0.5244309007361362
sI2184
F0.5023561838748253
sI2185
F0.37115770482588045
sI2186
F0.3645982614023189
sI2187
F0.5170770444816605
sI2188
F0.2784870916954602
sI2189
F0.37115770482588045
sI2190
F0.4295919907658751
sI2191
F0.3038003973883642
sI2192
F0.28429976381119626
sI2193
F0.322724081132214
sI2194
F0.32068723656266707
sI2195
F0.36265802576730166
sI2196
F0.23480282928016508
sI2197
F0.37136019418579796
sI2198
F0.2783334368068243
sI2199
F0.3571361959045425
sI2200
F0.30170700709219644
sI2201
F0.2833018101435445
sI2202
F0.37115770482588045
sI2203
F0.2474499597722944
sI2204
F0.4129272819483681
sI2205
F0.45033138132564293
sI2206
F0.5459136123325562
sI2207
F0.2901412089574536
sI2208
F0.5337821987251662
sI2209
F0.3471659504511174
sI2210
F0.5307816982946336
sI2211
F0.3842181711332705
sI2212
F0.32023051253489415
sI2213
F0.2785114692695893
sI2214
F0.4129272819483681
sI2215
F0.472078251053668
sI2216
F0.35658966542575293
sI2217
F0.4164948977365525
sI2218
F0.4129272819483681
sI2219
F0.4767357627510898
sI2220
F0.45361666277730095
sI2221
F0.4129272819483681
sI2222
F0.28255591168573113
sI2223
F0.3561246052268552
sI2224
F0.2833018101435445
sI2225
F0.37115770482588045
sI2226
F0.45033138132564293
sI2227
F0.45033138132564293
sI2228
F0.2474499597722944
sI2229
F0.4129272819483681
sI2230
F0.45361666277730095
sI2231
F0.4129272819483681
sI2232
F0.4129272819483681
sI2233
F0.4129272819483681
sI2234
F0.4824197705712293
sI2235
F0.38384520483817597
sI2236
F0.3580709050048745
sI2237
F0.27209031381018545
sI2238
F0.3842181711332705
sI2239
F0.35494189755948663
sI2240
F0.3842181711332705
sI2241
F0.40810803776542487
sI2242
F0.4410408066357361
sI2243
F0.3002860161291797
sI2244
F0.30183730432932726
sI2245
F0.32616092016126796
sI2246
F0.44346984750122836
sI2247
F0.32967648788757276
sI2248
F0.41733817537810564
sI2249
F0.3911042191089364
sI2250
F0.3645982614023189
sI2251
F0.3561246052268552
sI2252
F0.45361666277730095
sI2253
F0.29369900872518545
sI2254
F0.4072789780273198
sI2255
F0.4387827655326121
sI2256
F0.4387827655326121
sI2257
F0.27972373122970084
sI2258
F0.3154422296373848
sI2259
F0.5244309007361362
sI2260
F0.317801018682427
sI2261
F0.4295919907658751
sI2262
F0.3073688502519994
sI2263
F0.3154422296373848
sI2264
F0.37115770482588045
sI2265
F0.37115770482588045
sI2266
F0.32616092016126796
sI2267
F0.3029152791078141
sI2268
F0.26145644220753367
sI2269
F0.36506213000212273
sI2270
F0.274592626548707
sI2271
F0.3029152791078141
sI2272
F0.30183730432932726
sI2273
F0.2996995446835124
sI2274
F0.26145644220753367
sI2275
F0.37115770482588045
sI2276
F0.2672375831423503
sI2277
F0.2474499597722944
sI2278
F0.29257688265398185
sI2279
F0.37115770482588045
sI2280
F0.37115770482588045
sI2281
F0.3380287813140525
sI2282
F0.34790897969467577
sI2283
F0.41733817537810564
sI2284
F0.2833018101435445
sI2285
F0.37115770482588045
sI2286
F0.2474499597722944
sI2287
F0.4129272819483681
sI2288
F0.45033138132564293
sI2289
F0.45033138132564293
sI2290
F0.4129272819483681
sI2291
F0.4129272819483681
sI2292
F0.45361666277730095
sI2293
F0.4129272819483681
sI2294
F0.3645982614023189
sI2295
F0.3911042191089364
sI2296
F0.37115770482588045
sI2297
F0.27972373122970084
sI2298
F0.4387827655326121
sI2299
F0.4387827655326121
sI2300
F0.3073688502519994
sI2301
F0.4295919907658751
sI2302
F0.317801018682427
sI2303
F0.5244309007361362
sI2304
F1.0
sI2305
F0.37115770482588045
sI2306
F0.37115770482588045
sI2307
F0.26145644220753367
sI2308
F0.37115770482588045
sI2309
F0.37115770482588045
sI2310
F0.2474499597722944
sI2311
F0.2672375831423503
sI2312
F0.41733817537810564
sI2313
F0.34790897969467577
sI2314
F0.3380287813140525
sI2315
F0.37115770482588045
sI2316
F0.4129272819483681
sI2317
F0.4129272819483681
sI2318
F0.45361666277730095
sI2319
F0.4129272819483681
sI2320
F0.2474499597722944
sI2321
F0.4129272819483681
sI2322
F0.45033138132564293
sI2323
F0.45033138132564293
sI2324
F0.2833018101435445
sI2325
F0.37115770482588045
sI2326
F0.4551735588700075
sI2327
F0.36866297825341776
sI2328
F0.30279507463197763
sI2329
F0.3265796510486626
sI2330
F0.26145644220753367
sI2331
F0.28718577658216576
sI2332
F0.37115770482588045
sI2333
F0.287876548173666
sI2334
F0.45361666277730095
sI2335
F0.5319853951676884
sI2336
F0.26145644220753367
sI2337
F0.3038265607501918
sI2338
F0.32776719330987586
sI2339
F0.38413876753097853
sI2340
F0.3866327916892876
sI2341
F0.382424992293809
sI2342
F0.3225156385915272
sI2343
F0.32967648788757276
sI2344
F0.28252964232226613
sI2345
F0.26145644220753367
sI2346
F0.37115770482588045
sI2347
F0.4132805395094745
sI2348
F0.43528047903360373
sI2349
F0.3147921844476548
sI2350
F0.4312139171803354
sI2351
F0.32967648788757276
sI2352
F0.5170770444816605
sI2353
F0.25556483811043473
sI2354
F0.37115770482588045
sI2355
F0.5244309007361362
sI2356
F0.45361666277730095
sI2357
F0.37115770482588045
sI2358
F0.37115770482588045
sI2359
F0.3168252329511417
sI2360
F0.26145644220753367
sI2361
F0.2571428571428571
sI2362
F0.3139463060892092
sI2363
F0.48201991606354083
sI2364
F0.3319561049347182
sI2365
F0.28255591168573113
sI2366
F0.31815495225963436
sI2367
F0.32967648788757276
sI2368
F0.4015887645544022
sI2369
F0.3224100297338033
sI2370
F0.4072789780273198
sI2371
F0.45361666277730095
sI2372
F0.37115770482588045
sI2373
F0.440634367714651
sI2374
F0.3326815790962817
sI2375
F0.41581527421252584
sI2376
F0.47202845654375875
sI2377
F0.45361666277730095
sI2378
F0.4034320561681314
sI2379
F0.28598175746221494
sI2380
F0.37115770482588045
sI2381
F0.319768391700479
sI2382
F0.3425137653525856
sI2383
F0.45361666277730095
sI2384
F0.2779153614450123
sI2385
F0.30816192530855685
sI2386
F0.26145644220753367
sI2387
F0.273487944254197
sI2388
F0.32967648788757276
sI2389
F0.27769021229135443
sI2390
F0.31815495225963436
sI2391
F0.3147921844476548
sI2392
F0.2739783215095572
sI2393
F0.4767357627510898
sI2394
F0.42830428331152925
sI2395
F0.40994838545532086
sI2396
F0.45361666277730095
sI2397
F0.45361666277730095
sI2398
F0.26145644220753367
sI2399
F0.36506213000212273
sI2400
F0.32616092016126796
sI2401
F0.3029152791078141
sI2402
F0.30183730432932726
sI2403
F0.2996995446835124
sI2404
F0.274592626548707
sI2405
F0.3029152791078141
sI2406
F0.37115770482588045
sI2407
F0.37115770482588045
sI2408
F0.35732708453706935
sI2409
F0.34993136549760295
sI2410
F0.4312139171803354
sI2411
F0.3147921844476548
sI2412
F0.5170770444816605
sI2413
F0.32967648788757276
sI2414
F0.37115770482588045
sI2415
F0.25556483811043473
sI2416
F0.45361666277730095
sI2417
F0.5244309007361362
sI2418
F0.37115770482588045
sI2419
F0.37115770482588045
sI2420
F0.3440955948654802
sI2421
F0.3585678998394481
sI2422
F0.30159796178556675
sI2423
F0.3442357946963096
sI2424
F0.36265802576730166
sI2425
F0.3027748417883395
sI2426
F0.4219343866648977
sI2427
F0.30075208430189915
sI2428
F0.32959134229519965
sI2429
F0.3405053822494036
sI2430
F0.37115770482588045
sI2431
F0.37115770482588045
sI2432
F0.45361666277730095
sI2433
F0.5244309007361362
sI2434
F0.37115770482588045
sI2435
F0.25556483811043473
sI2436
F0.5170770444816605
sI2437
F0.32967648788757276
sI2438
F0.4312139171803354
sI2439
F0.3147921844476548
sI2440
F0.2702911258272671
sI2441
F0.4288007226207242
sI2442
F0.4294590498321902
sI2443
F0.32116890693892236
sI2444
F0.28703092744266495
sI2445
F0.32155855207887846
sI2446
F0.2646257078091786
sI2447
F0.37131502380174686
sI2448
F0.334634281140974
sI2449
F0.2615058412830164
sI2450
F0.42843823789397756
sI2451
F0.43528047903360373
sI2452
F0.4132805395094745
sI2453
F0.37115770482588045
sI2454
F0.31815495225963436
sI2455
F0.28255591168573113
sI2456
F0.483081091497028
sI2457
F0.45945707462876634
sI2458
F0.44346984750122836
sI2459
F0.4164948977365525
sI2460
F0.28252964232226613
sI2461
F0.26145644220753367
sI2462
F0.32776719330987586
sI2463
F0.38413876753097853
sI2464
F0.26145644220753367
sI2465
F0.3038265607501918
sI2466
F0.3225156385915272
sI2467
F0.32967648788757276
sI2468
F0.3866327916892876
sI2469
F0.382424992293809
sI2470
F0.37115770482588045
sI2471
F0.4132805395094745
sI2472
F0.43528047903360373
sI2473
F0.42843823789397756
sI2474
F0.45945707462876634
sI2475
F0.483081091497028
sI2476
F0.28255591168573113
sI2477
F0.31815495225963436
sI2478
F0.5337821987251662
sI2479
F0.4535331536492762
sI2480
F0.4522765466609578
sI2481
F0.42251526149584007
sI2482
F0.4281021783326807
sI2483
F0.44948432074025535
sI2484
F0.40810803776542487
sI2485
F0.44948044046839736
sI2486
F0.43528047903360373
sI2487
F0.489439282912941
sI2488
F0.3139463060892092
sI2489
F0.2571428571428571
sI2490
F0.3319561049347182
sI2491
F0.48201991606354083
sI2492
F0.3411926157302325
sI2493
F0.3370155390968863
sI2494
F0.26145644220753367
sI2495
F0.3168252329511417
sI2496
F0.4312139171803354
sI2497
F0.45361666277730095
sI2498
F0.45361666277730095
sI2499
F0.45361666277730095
sI2500
F0.31212498691456786
sI2501
F0.37115770482588045
sI2502
F0.2739783215095572
sI2503
F0.3147921844476548
sI2504
F0.31815495225963436
sI2505
F0.27769021229135443
sI2506
F0.3693938630762921
sI2507
F0.37115770482588045
sI2508
F0.2876349046992291
sI2509
F0.4295919907658751
sI2510
F0.3718607659873502
sI2511
F0.26145644220753367
sI2512
F0.2911841845665237
sI2513
F0.2866017972133953
sI2514
F0.32967648788757276
sI2515
F0.272954092584186
sI2516
F0.2672375831423503
sI2517
F0.2474499597722944
sI2518
F0.29257688265398185
sI2519
F0.37115770482588045
sI2520
F0.37115770482588045
sI2521
F0.3380287813140525
sI2522
F0.34790897969467577
sI2523
F0.41733817537810564
sI2524
F0.26145644220753367
sI2525
F0.37115770482588045
sI2526
F0.32967648788757276
sI2527
F0.272954092584186
sI2528
F0.3718607659873502
sI2529
F0.26145644220753367
sI2530
F0.2911841845665237
sI2531
F0.2866017972133953
sI2532
F0.3693938630762921
sI2533
F0.37115770482588045
sI2534
F0.2876349046992291
sI2535
F0.4295919907658751
sI2536
F0.3357329742132884
sI2537
F0.2724144547389476
sI2538
F0.4562672154362555
sI2539
F0.45361666277730095
sI2540
F0.37115770482588045
sI2541
F0.4295919907658751
sI2542
F0.4312139171803354
sI2543
F0.42843823789397756
sI2544
F0.37115770482588045
sI2545
F0.37115770482588045
sI2546
F0.3411926157302325
sI2547
F0.3370155390968863
sI2548
F0.26145644220753367
sI2549
F0.3168252329511417
sI2550
F0.3139463060892092
sI2551
F0.2571428571428571
sI2552
F0.3319561049347182
sI2553
F0.48201991606354083
sI2554
F0.43528047903360373
sI2555
F0.489439282912941
sI2556
F0.37115770482588045
sI2557
F0.37115770482588045
sI2558
F0.4295919907658751
sI2559
F0.2996995446835124
sI2560
F0.30183730432932726
sI2561
F0.3029152791078141
sI2562
F0.274592626548707
sI2563
F0.36506213000212273
sI2564
F0.26145644220753367
sI2565
F0.3029152791078141
sI2566
F0.32616092016126796
sI2567
F0.37115770482588045
sI2568
F0.28252964232226613
sI2569
F0.26145644220753367
sI2570
F0.3866327916892876
sI2571
F0.382424992293809
sI2572
F0.3225156385915272
sI2573
F0.32967648788757276
sI2574
F0.26145644220753367
sI2575
F0.3038265607501918
sI2576
F0.32776719330987586
sI2577
F0.2866017972133953
sI2578
F0.26145644220753367
sI2579
F0.26145644220753367
sI2580
F0.32967648788757276
sI2581
F0.4164948977365525
sI2582
F0.41733817537810564
sI2583
F0.33162972469144164
sI2584
F0.28161142155326235
sI2585
F0.32616092016126796
sI2586
F0.27742038327309726
sI2587
F0.4696465245950031
sI2588
F0.5244309007361362
sI2589
F0.4562672154362555
sI2590
F0.45361666277730095
sI2591
F0.3073688502519994
sI2592
F0.4312139171803354
sI2593
F0.45361666277730095
sI2594
F0.31212498691456786
sI2595
F0.37115770482588045
sI2596
F0.45361666277730095
sI2597
F0.45361666277730095
sI2598
F0.31815495225963436
sI2599
F0.27769021229135443
sI2600
F0.2739783215095572
sI2601
F0.3147921844476548
sI2602
F0.4295919907658751
sI2603
F0.3073688502519994
sI2604
F0.5244309007361362
sI2605
F0.317801018682427
sI2606
F0.27972373122970084
sI2607
F0.37115770482588045
sI2608
F0.4387827655326121
sI2609
F0.4387827655326121
sI2610
F0.3911042191089364
sI2611
F0.3645982614023189
sI2612
F0.5244309007361362
sI2613
F0.5023561838748253
sI2614
F0.37115770482588045
sI2615
F0.32967648788757276
sI2616
F0.5170770444816605
sI2617
F0.2784870916954602
sI2618
F0.37115770482588045
sI2619
F0.3645982614023189
sI2620
F0.37115770482588045
sI2621
F0.4295919907658751
sI2622
F0.4562672154362555
sI2623
F0.45361666277730095
sI2624
F0.37115770482588045
sI2625
F0.4295919907658751
sI2626
F0.4312139171803354
sI2627
F0.3411926157302325
sI2628
F0.3168252329511417
sI2629
F0.26145644220753367
sI2630
F0.3357329742132884
sI2631
F0.2724144547389476
sI2632
F0.489439282912941
sI2633
F0.43528047903360373
sI2634
F0.26145644220753367
sI2635
F0.37115770482588045
sI2636
F0.29257688265398185
sI2637
F0.37115770482588045
sI2638
F0.2672375831423503
sI2639
F0.2474499597722944
sI2640
F0.34790897969467577
sI2641
F0.41733817537810564
sI2642
F0.37115770482588045
sI2643
F0.3380287813140525
sI2644
F0.47202845654375875
sI2645
F0.45361666277730095
sI2646
F0.3326815790962817
sI2647
F0.2862749095484308
sI2648
F0.45361666277730095
sI2649
F0.45945707462876634
sI2650
F0.37115770482588045
sI2651
F0.28255591168573113
sI2652
F0.31815495225963436
sI2653
F0.37115770482588045
sI2654
F0.4132805395094745
sI2655
F0.43528047903360373
sI2656
F0.42843823789397756
sI2657
F0.4072789780273198
sI2658
F0.45361666277730095
sI2659
F0.2474499597722944
sI2660
F0.2672375831423503
sI2661
F0.45361666277730095
sI2662
F0.4312139171803354
sI2663
F0.45361666277730095
sI2664
F0.45361666277730095
sI2665
F0.37115770482588045
sI2666
F0.31212498691456786
sI2667
F0.3147921844476548
sI2668
F0.2739783215095572
sI2669
F0.27769021229135443
sI2670
F0.31815495225963436
sI2671
F0.27742038327309726
sI2672
F0.4696465245950031
sI2673
F0.28161142155326235
sI2674
F0.32616092016126796
sI2675
F0.45361666277730095
sI2676
F0.3073688502519994
sI2677
F0.5244309007361362
sI2678
F0.4562672154362555
sI2679
F0.41733817537810564
sI2680
F0.33162972469144164
sI2681
F0.26145644220753367
sI2682
F0.3168252329511417
sI2683
F0.3411926157302325
sI2684
F0.3370155390968863
sI2685
F0.3319561049347182
sI2686
F0.48201991606354083
sI2687
F0.3139463060892092
sI2688
F0.2571428571428571
sI2689
F0.43528047903360373
sI2690
F0.489439282912941
sI2691
F0.37115770482588045
sI2692
F0.4295919907658751
sI2693
F0.48201991606354083
sI2694
F0.37115770482588045
sI2695
F0.32967648788757276
sI2696
F0.5244309007361362
sI2697
F0.5023561838748253
sI2698
F0.37115770482588045
sI2699
F0.3645982614023189
sI2700
F0.5170770444816605
sI2701
F0.2784870916954602
sI2702
F0.3943977821077957
sI2703
F0.43528047903360373
sI2704
F0.37115770482588045
sI2705
F0.26145644220753367
sI2706
F0.37115770482588045
sI2707
F0.29257688265398185
sI2708
F0.2474499597722944
sI2709
F0.2672375831423503
sI2710
F0.41733817537810564
sI2711
F0.34790897969467577
sI2712
F0.3380287813140525
sI2713
F0.37115770482588045
sI2714
F0.37115770482588045
sI2715
F0.4295919907658751
sI2716
F0.5244309007361362
sI2717
F0.5023561838748253
sI2718
F0.37115770482588045
sI2719
F0.32967648788757276
sI2720
F0.5170770444816605
sI2721
F0.2784870916954602
sI2722
F0.37115770482588045
sI2723
F0.3645982614023189
sI2724
F0.3073688502519994
sI2725
F0.4295919907658751
sI2726
F0.317801018682427
sI2727
F0.5244309007361362
sI2728
F0.37115770482588045
sI2729
F0.27972373122970084
sI2730
F0.4387827655326121
sI2731
F0.4387827655326121
sI2732
F0.3645982614023189
sI2733
F0.3911042191089364
sI2734
F0.37115770482588045
sI2735
F0.3380287813140525
sI2736
F0.34790897969467577
sI2737
F0.41733817537810564
sI2738
F0.2672375831423503
sI2739
F0.2474499597722944
sI2740
F0.29257688265398185
sI2741
F0.37115770482588045
sI2742
F0.26145644220753367
sI2743
F0.37115770482588045
sI2744
F0.37115770482588045
sI2745
F0.37115770482588045
sI2746
F0.483081091497028
sI2747
F0.45945707462876634
sI2748
F0.31815495225963436
sI2749
F0.28255591168573113
sI2750
F0.3718607659873502
sI2751
F0.26145644220753367
sI2752
F0.2911841845665237
sI2753
F0.2866017972133953
sI2754
F0.3693938630762921
sI2755
F0.37115770482588045
sI2756
F0.2876349046992291
sI2757
F0.4295919907658751
sI2758
F0.32967648788757276
sI2759
F0.272954092584186
sI2760
F0.4767357627510898
sI2761
F0.29867215939518227
sI2762
F0.3866327916892876
sI2763
F0.37115770482588045
sI2764
F0.37948950212186017
sI2765
F0.38413876753097853
sI2766
F0.37115770482588045
sI2767
F0.26838087449251796
sI2768
F0.3561246052268552
sI2769
F0.45361666277730095
sI2770
F0.4562672154362555
sI2771
F0.45361666277730095
sI2772
F0.37115770482588045
sI2773
F0.4295919907658751
sI2774
F0.4312139171803354
sI2775
F0.42843823789397756
sI2776
F0.37115770482588045
sI2777
F0.37115770482588045
sI2778
F0.3357329742132884
sI2779
F0.2724144547389476
sI2780
F0.3147921844476548
sI2781
F0.2739783215095572
sI2782
F0.27769021229135443
sI2783
F0.31815495225963436
sI2784
F0.45361666277730095
sI2785
F0.45361666277730095
sI2786
F0.37115770482588045
sI2787
F0.31212498691456786
sI2788
F0.45361666277730095
sI2789
F0.4312139171803354
sI2790
F0.37115770482588045
sI2791
F0.3866327916892876
sI2792
F0.29867215939518227
sI2793
F0.4767357627510898
sI2794
F0.26838087449251796
sI2795
F0.37115770482588045
sI2796
F0.38413876753097853
sI2797
F0.37948950212186017
sI2798
F0.45361666277730095
sI2799
F0.3561246052268552
sI2800
F0.4034320561681314
sI2801
F0.28598175746221494
sI2802
F0.37115770482588045
sI2803
F0.319768391700479
sI2804
F0.3425137653525856
sI2805
F0.45361666277730095
sI2806
F0.2779153614450123
sI2807
F0.30816192530855685
sI2808
F0.26145644220753367
sI2809
F0.273487944254197
sI2810
F0.4295919907658751
sI2811
F0.37115770482588045
sI2812
F0.3645982614023189
sI2813
F0.37115770482588045
sI2814
F0.2784870916954602
sI2815
F0.5170770444816605
sI2816
F0.32967648788757276
sI2817
F0.37115770482588045
sI2818
F0.5023561838748253
sI2819
F0.5244309007361362
sI2820
F0.4164948977365525
sI2821
F0.44346984750122836
sI2822
F0.28255591168573113
sI2823
F0.4072789780273198
sI2824
F0.45361666277730095
sI2825
F0.37115770482588045
sI2826
F0.440634367714651
sI2827
F0.3326815790962817
sI2828
F0.41581527421252584
sI2829
F0.47202845654375875
sI2830
F0.45361666277730095
sI2831
F0.4015887645544022
sI2832
F0.3224100297338033
sI2833
F0.27972373122970084
sI2834
F0.37115770482588045
sI2835
F0.4387827655326121
sI2836
F0.4387827655326121
sI2837
F0.4295919907658751
sI2838
F0.3073688502519994
sI2839
F0.5244309007361362
sI2840
F0.272954092584186
sI2841
F0.3911042191089364
sI2842
F0.3645982614023189
sI2843
F0.2876349046992291
sI2844
F0.4295919907658751
sI2845
F0.3718607659873502
sI2846
F0.26145644220753367
sI2847
F0.2911841845665237
sI2848
F0.2866017972133953
sI2849
F0.32967648788757276
sI2850
F0.272954092584186
sI2851
F0.2911841845665237
sI2852
F0.2866017972133953
sI2853
F0.3718607659873502
sI2854
F0.26145644220753367
sI2855
F0.2876349046992291
sI2856
F0.4295919907658751
sI2857
F0.3693938630762921
sI2858
F0.37115770482588045
sI2859
F0.3154422296373848
sI2860
F0.32967648788757276
sI2861
F0.41733817537810564
sI2862
F0.32967648788757276
sI2863
F0.44346984750122836
sI2864
F0.41733817537810564
sI2865
F0.32616092016126796
sI2866
F0.30183730432932726
sI2867
F0.4072789780273198
sI2868
F0.29369900872518545
sI2869
F0.28598175746221494
sI2870
F0.4034320561681314
sI2871
F0.319768391700479
sI2872
F0.37948950212186017
sI2873
F0.37115770482588045
sI2874
F0.33162972469144164
sI2875
F0.41733817537810564
sI2876
F0.41733817537810564
sI2877
F0.3073688502519994
sI2878
F0.45361666277730095
sI2879
F0.4562672154362555
sI2880
F0.5244309007361362
sI2881
F0.4696465245950031
sI2882
F0.27742038327309726
sI2883
F0.32616092016126796
sI2884
F0.28161142155326235
sI2885
F0.32616092016126796
sI2886
F0.30183730432932726
sI2887
F0.44346984750122836
sI2888
F0.41733817537810564
sI2889
F0.41733817537810564
sI2890
F0.32967648788757276
sI2891
F0.3154422296373848
sI2892
F0.32967648788757276
sI2893
F0.30183730432932726
sI2894
F0.4072789780273198
sI2895
F0.29369900872518545
sI2896
F0.32616092016126796
sI2897
F0.41733817537810564
sI2898
F0.44346984750122836
sI2899
F0.3911042191089364
sI2900
F0.3645982614023189
sI2901
F0.27972373122970084
sI2902
F0.37115770482588045
sI2903
F0.4387827655326121
sI2904
F0.4387827655326121
sI2905
F0.4295919907658751
sI2906
F0.3073688502519994
sI2907
F0.5244309007361362
sI2908
F0.317801018682427
sI2909
F0.26145644220753367
sI2910
F0.273487944254197
sI2911
F0.37115770482588045
sI2912
F0.319768391700479
sI2913
F0.4034320561681314
sI2914
F0.28598175746221494
sI2915
F0.2779153614450123
sI2916
F0.30816192530855685
sI2917
F0.3425137653525856
sI2918
F0.45361666277730095
sI2919
F0.3645982614023189
sI2920
F0.3911042191089364
sI2921
F0.4387827655326121
sI2922
F0.4387827655326121
sI2923
F0.37115770482588045
sI2924
F0.27972373122970084
sI2925
F0.317801018682427
sI2926
F0.5244309007361362
sI2927
F0.3073688502519994
sI2928
F0.4295919907658751
sI2929
F0.3147921844476548
sI2930
F0.37115770482588045
sI2931
F0.37115770482588045
sI2932
F0.2996995446835124
sI2933
F0.30183730432932726
sI2934
F0.3029152791078141
sI2935
F0.274592626548707
sI2936
F0.36506213000212273
sI2937
F0.26145644220753367
sI2938
F0.3029152791078141
sI2939
F0.32616092016126796
sI2940
F0.37115770482588045
sI2941
F0.37115770482588045
sI2942
F0.274592626548707
sI2943
F0.3029152791078141
sI2944
F0.30183730432932726
sI2945
F0.2996995446835124
sI2946
F0.32616092016126796
sI2947
F0.3029152791078141
sI2948
F0.26145644220753367
sI2949
F0.36506213000212273
sI2950
F0.45361666277730095
sI2951
F0.5244309007361362
sI2952
F0.37115770482588045
sI2953
F0.25556483811043473
sI2954
F0.5170770444816605
sI2955
F0.32967648788757276
sI2956
F0.4312139171803354
sI2957
F0.3147921844476548
sI2958
F0.37115770482588045
sI2959
F0.37115770482588045
sI2960
F0.3561246052268552
sI2961
F0.45361666277730095
sI2962
F0.4767357627510898
sI2963
F0.29867215939518227
sI2964
F0.3866327916892876
sI2965
F0.37115770482588045
sI2966
F0.37948950212186017
sI2967
F0.38413876753097853
sI2968
F0.37115770482588045
sI2969
F0.26838087449251796
sI2970
F0.3561246052268552
sI2971
F0.45361666277730095
sI2972
F0.37948950212186017
sI2973
F0.38413876753097853
sI2974
F0.37115770482588045
sI2975
F0.26838087449251796
sI2976
F0.4767357627510898
sI2977
F0.29867215939518227
sI2978
F0.3866327916892876
sI2979
F0.37115770482588045
sI2980
F0.5170770444816605
sI2981
F0.32967648788757276
sI2982
F0.4312139171803354
sI2983
F0.3147921844476548
sI2984
F0.45361666277730095
sI2985
F0.5244309007361362
sI2986
F0.37115770482588045
sI2987
F0.25556483811043473
sI2988
F0.37115770482588045
sI2989
F0.37115770482588045
sI2990
F0.37115770482588045
sI2991
F0.3645982614023189
sI2992
F0.5170770444816605
sI2993
F0.2784870916954602
sI2994
F0.37115770482588045
sI2995
F0.32967648788757276
sI2996
F0.5244309007361362
sI2997
F0.5023561838748253
sI2998
F0.37115770482588045
sI2999
F0.4295919907658751
sI3000
F0.272954092584186
sI3001
F0.32967648788757276
sI3002
F0.4295919907658751
sI3003
F0.2876349046992291
sI3004
F0.37115770482588045
sI3005
F0.3693938630762921
sI3006
F0.2866017972133953
sI3007
F0.2911841845665237
sI3008
F0.26145644220753367
sI3009
F0.3718607659873502
sI3010
F0.33162972469144164
sI3011
F0.41733817537810564
sI3012
F0.32616092016126796
sI3013
F0.30183730432932726
sI3014
F0.4696465245950031
sI3015
F0.27742038327309726
sI3016
F0.4562672154362555
sI3017
F0.5244309007361362
sI3018
F0.3073688502519994
sI3019
F0.45361666277730095
sI3020
F0.28718577658216576
sI3021
F0.26145644220753367
sI3022
F0.287876548173666
sI3023
F0.37115770482588045
sI3024
F0.36866297825341776
sI3025
F0.4551735588700075
sI3026
F0.3265796510486626
sI3027
F0.30183730432932726
sI3028
F0.5319853951676884
sI3029
F0.45361666277730095
sI3030
F0.44346984750122836
sI3031
F0.41733817537810564
sI3032
F0.41733817537810564
sI3033
F0.32967648788757276
sI3034
F0.3154422296373848
sI3035
F0.32967648788757276
sI3036
F0.37948950212186017
sI3037
F0.38413876753097853
sI3038
F0.37115770482588045
sI3039
F0.26838087449251796
sI3040
F0.4767357627510898
sI3041
F0.29867215939518227
sI3042
F0.3866327916892876
sI3043
F0.37115770482588045
sI3044
F0.3561246052268552
sI3045
F0.45361666277730095
sI3046
F0.3866327916892876
sI3047
F0.37115770482588045
sI3048
F0.4767357627510898
sI3049
F0.29867215939518227
sI3050
F0.37115770482588045
sI3051
F0.26838087449251796
sI3052
F0.37948950212186017
sI3053
F0.38413876753097853
sI3054
F0.3561246052268552
sI3055
F0.45361666277730095
sI3056
F0.319768391700479
sI3057
F0.37115770482588045
sI3058
F0.28598175746221494
sI3059
F0.4034320561681314
sI3060
F0.2862749095484308
sI3061
F0.45361666277730095
sI3062
F0.45361666277730095
sI3063
F0.3425137653525856
sI3064
F0.2530917667913436
sI3065
F0.3943977821077957
sI3066
F0.37115770482588045
sI3067
F0.2698774048154851
sI3068
F0.37115770482588045
sI3069
F0.4312139171803354
sI3070
F0.37115770482588045
sI3071
F0.2739783215095572
sI3072
F0.2571428571428571
sI3073
F0.3139463060892092
sI3074
F0.48201991606354083
sI3075
F0.3319561049347182
sI3076
F0.3370155390968863
sI3077
F0.3411926157302325
sI3078
F0.3168252329511417
sI3079
F0.26145644220753367
sI3080
F0.489439282912941
sI3081
F0.43528047903360373
sI3082
F0.32967648788757276
sI3083
F0.3225156385915272
sI3084
F0.382424992293809
sI3085
F0.3866327916892876
sI3086
F0.38413876753097853
sI3087
F0.32776719330987586
sI3088
F0.3038265607501918
sI3089
F0.26145644220753367
sI3090
F0.26145644220753367
sI3091
F0.28252964232226613
sI3092
F0.2370755524144459
sI3093
F0.32255646891034784
sI3094
F0.34323568528550336
sI3095
F0.28035875774034036
sI3096
F0.30170700709219644
sI3097
F0.28891043793075316
sI3098
F0.2956477353856426
sI3099
F0.29670948289441385
sI3100
F0.2689895690856213
sI3101
F0.25238691696915044
sI3102
F0.37115770482588045
sI3103
F0.3866327916892876
sI3104
F0.29867215939518227
sI3105
F0.4767357627510898
sI3106
F0.26838087449251796
sI3107
F0.37115770482588045
sI3108
F0.38413876753097853
sI3109
F0.37948950212186017
sI3110
F0.45361666277730095
sI3111
F0.3561246052268552
sI3112
F0.43528047903360373
sI3113
F0.489439282912941
sI3114
F0.3319561049347182
sI3115
F0.48201991606354083
sI3116
F0.3139463060892092
sI3117
F0.2571428571428571
sI3118
F0.26145644220753367
sI3119
F0.3168252329511417
sI3120
F0.3411926157302325
sI3121
F0.3370155390968863
sI3122
F0.4164948977365525
sI3123
F0.44346984750122836
sI3124
F0.31770274423240347
sI3125
F0.44346984750122836
sI3126
F0.3503192145692992
sI3127
F0.41733817537810564
sI3128
F0.37115770482588045
sI3129
F0.37115770482588045
sI3130
F0.28255591168573113
sI3131
F0.31815495225963436
sI3132
F0.45945707462876634
sI3133
F0.483081091497028
sI3134
F0.43528047903360373
sI3135
F0.42843823789397756
sI3136
F0.37115770482588045
sI3137
F0.4132805395094745
sI3138
F0.45361666277730095
sI3139
F0.45361666277730095
sI3140
F0.37115770482588045
sI3141
F0.31212498691456786
sI3142
F0.3147921844476548
sI3143
F0.2739783215095572
sI3144
F0.27769021229135443
sI3145
F0.31815495225963436
sI3146
F0.45361666277730095
sI3147
F0.4312139171803354
sI3148
F1.0
sI3149
F0.37115770482588045
sI3150
F0.45945707462876634
sI3151
F0.4312139171803354
sI3152
F0.42843823789397756
sI3153
F0.37115770482588045
sI3154
F0.37115770482588045
sI3155
F0.4562672154362555
sI3156
F0.45361666277730095
sI3157
F0.37115770482588045
sI3158
F0.4295919907658751
sI3159
F0.3357329742132884
sI3160
F0.2724144547389476
sI3161
F0.2862749095484308
sI3162
F0.45361666277730095
sI3163
F0.2876349046992291
sI3164
F0.4295919907658751
sI3165
F0.3718607659873502
sI3166
F0.26145644220753367
sI3167
F0.2911841845665237
sI3168
F0.2866017972133953
sI3169
F0.37115770482588045
sI3170
F0.4312139171803354
sI3171
F0.37115770482588045
sI3172
F0.2739783215095572
sI3173
F0.2530917667913436
sI3174
F0.3943977821077957
sI3175
F0.37115770482588045
sI3176
F0.2698774048154851
sI3177
F0.37115770482588045
sI3178
F0.29257688265398185
sI3179
F0.41733817537810564
sI3180
F0.2739783215095572
sI3181
F0.3503192145692992
sI3182
F0.4129272819483681
sI3183
F0.44346984750122836
sI3184
F0.4129272819483681
sI3185
F0.31770274423240347
sI3186
F0.37115770482588045
sI3187
F0.37115770482588045
sI3188
F0.2698774048154851
sI3189
F0.38483959275865537
sI3190
F0.37115770482588045
sI3191
F0.2474499597722944
sI3192
F0.33162972469144164
sI3193
F0.5244309007361362
sI3194
F0.37115770482588045
sI3195
F0.45361666277730095
sI3196
F0.2862749095484308
sI3197
F0.3503192145692992
sI3198
F0.41733817537810564
sI3199
F0.37115770482588045
sI3200
F0.37115770482588045
sI3201
F0.38483959275865537
sI3202
F0.37115770482588045
sI3203
F0.31770274423240347
sI3204
F0.44346984750122836
sI3205
F0.37115770482588045
sI3206
F1.0
sI3207
F0.42843823789397756
sI3208
F0.43528047903360373
sI3209
F0.4132805395094745
sI3210
F0.37115770482588045
sI3211
F0.31815495225963436
sI3212
F0.28255591168573113
sI3213
F0.3718607659873502
sI3214
F0.45945707462876634
sI3215
F0.37115770482588045
sI3216
F0.37115770482588045
sI3217
F0.44346984750122836
sI3218
F0.272954092584186
sI3219
F0.4312139171803354
sI3220
F0.36265802576730166
sI3221
F0.3240680735640652
sI3222
F0.29785040285305875
sI3223
F0.291417572594211
sI3224
F0.3112939587194251
sI3225
F0.2763378210046511
sI3226
F0.3395745583799074
sI3227
F0.3313679408137269
sI3228
F0.31179609234370165
sI3229
F0.33082983577334574
sI3230
F0.4129272819483681
sI3231
F0.45361666277730095
sI3232
F0.4129272819483681
sI3233
F0.4129272819483681
sI3234
F0.45033138132564293
sI3235
F0.45033138132564293
sI3236
F0.4129272819483681
sI3237
F0.2474499597722944
sI3238
F0.37115770482588045
sI3239
F0.2833018101435445
sI3240
F0.4132805395094745
sI3241
F0.37115770482588045
sI3242
F0.42843823789397756
sI3243
F0.43528047903360373
sI3244
F0.483081091497028
sI3245
F0.45945707462876634
sI3246
F0.31815495225963436
sI3247
F0.28255591168573113
sI3248
F0.44346984750122836
sI3249
F0.4164948977365525
sI3250
F0.37115770482588045
sI3251
F0.2833018101435445
sI3252
F0.45033138132564293
sI3253
F0.45033138132564293
sI3254
F0.4129272819483681
sI3255
F0.2474499597722944
sI3256
F0.4129272819483681
sI3257
F0.45361666277730095
sI3258
F0.4129272819483681
sI3259
F0.4129272819483681
sI3260
F0.43528047903360373
sI3261
F0.3370155390968863
sI3262
F0.3411926157302325
sI3263
F0.272954092584186
sI3264
F0.32967648788757276
sI3265
F0.4295919907658751
sI3266
F0.2876349046992291
sI3267
F0.37115770482588045
sI3268
F0.3693938630762921
sI3269
F0.2866017972133953
sI3270
F0.2911841845665237
sI3271
F0.26145644220753367
sI3272
F0.3718607659873502
sI3273
F0.317801018682427
sI3274
F0.5244309007361362
sI3275
F0.3073688502519994
sI3276
F0.4295919907658751
sI3277
F0.4387827655326121
sI3278
F0.4387827655326121
sI3279
F0.37115770482588045
sI3280
F0.27972373122970084
sI3281
F0.3645982614023189
sI3282
F0.3911042191089364
sI3283
F0.4387827655326121
sI3284
F0.4072789780273198
sI3285
F0.29369900872518545
sI3286
F0.32616092016126796
sI3287
F0.30183730432932726
sI3288
F0.44346984750122836
sI3289
F0.41733817537810564
sI3290
F0.41733817537810564
sI3291
F0.32967648788757276
sI3292
F0.3154422296373848
sI3293
F0.32967648788757276
sI3294
F0.4387827655326121
sI3295
F0.42843823789397756
sI3296
F0.4312139171803354
sI3297
F0.37115770482588045
sI3298
F0.37115770482588045
sI3299
F0.45361666277730095
sI3300
F0.4562672154362555
sI3301
F0.4295919907658751
sI3302
F0.37115770482588045
sI3303
F0.2724144547389476
sI3304
F0.3357329742132884
sI3305
F0.37115770482588045
sI3306
F0.3380287813140525
sI3307
F0.34790897969467577
sI3308
F0.41733817537810564
sI3309
F0.2672375831423503
sI3310
F0.2474499597722944
sI3311
F0.29257688265398185
sI3312
F0.37115770482588045
sI3313
F0.26145644220753367
sI3314
F0.37115770482588045
sI3315
F0.41733817537810564
sI3316
F0.32967648788757276
sI3317
F0.3154422296373848
sI3318
F0.32967648788757276
sI3319
F0.32616092016126796
sI3320
F0.30183730432932726
sI3321
F0.44346984750122836
sI3322
F0.41733817537810564
sI3323
F0.4072789780273198
sI3324
F0.29369900872518545
sI3325
F0.3325296630205905
sI3326
F0.3645982614023189
sI3327
F0.3911042191089364
sI3328
F0.28718577658216576
sI3329
F0.26145644220753367
sI3330
F0.287876548173666
sI3331
F0.37115770482588045
sI3332
F0.36866297825341776
sI3333
F0.4551735588700075
sI3334
F0.3265796510486626
sI3335
F0.30279507463197763
sI3336
F0.5319853951676884
sI3337
F0.45361666277730095
sI3338
F0.4164948977365525
sI3339
F0.45361666277730095
sI3340
F0.4312139171803354
sI3341
F0.3147921844476548
sI3342
F0.2739783215095572
sI3343
F0.27769021229135443
sI3344
F0.31815495225963436
sI3345
F0.45361666277730095
sI3346
F0.45361666277730095
sI3347
F0.37115770482588045
sI3348
F0.31212498691456786
sI3349
F0.440634367714651
sI3350
F0.4015887645544022
sI3351
F0.3224100297338033
sI3352
F0.4072789780273198
sI3353
F0.45361666277730095
sI3354
F0.37115770482588045
sI3355
F0.440634367714651
sI3356
F0.3326815790962817
sI3357
F0.41581527421252584
sI3358
F0.47202845654375875
sI3359
F0.45361666277730095
sI3360
F0.26145644220753367
sI3361
F0.37115770482588045
sI3362
F0.3561246052268552
sI3363
F0.45361666277730095
sI3364
F0.37115770482588045
sI3365
F0.3380287813140525
sI3366
F0.34790897969467577
sI3367
F0.41733817537810564
sI3368
F0.2672375831423503
sI3369
F0.2474499597722944
sI3370
F0.29257688265398185
sI3371
F0.37115770482588045
sI3372
F0.37115770482588045
sI3373
F0.37115770482588045
sI3374
F0.4312139171803354
sI3375
F0.42843823789397756
sI3376
F0.37115770482588045
sI3377
F0.4295919907658751
sI3378
F0.4562672154362555
sI3379
F0.45361666277730095
sI3380
F0.3357329742132884
sI3381
F0.2724144547389476
sI3382
F0.4562672154362555
sI3383
F0.45361666277730095
sI3384
F0.37115770482588045
sI3385
F0.4295919907658751
sI3386
F0.4312139171803354
sI3387
F0.42843823789397756
sI3388
F0.37115770482588045
sI3389
F0.37115770482588045
sI3390
F0.3357329742132884
sI3391
F0.2724144547389476
sI3392
F0.37948950212186017
sI3393
F0.4387827655326121
sI3394
F0.4387827655326121
sI3395
F0.27972373122970084
sI3396
F0.26145644220753367
sI3397
F0.28252964232226613
sI3398
F0.38413876753097853
sI3399
F0.5244309007361362
sI3400
F0.3038265607501918
sI3401
F0.26145644220753367
sI3402
F0.32967648788757276
sI3403
F0.3225156385915272
sI3404
F0.382424992293809
sI3405
F0.3866327916892876
sI3406
F0.4295919907658751
sI3407
F0.3073688502519994
sI3408
F0.4295919907658751
sI3409
F0.37115770482588045
sI3410
F0.32967648788757276
sI3411
F0.37115770482588045
sI3412
F0.5023561838748253
sI3413
F0.5244309007361362
sI3414
F0.3645982614023189
sI3415
F0.37115770482588045
sI3416
F0.2784870916954602
sI3417
F0.5170770444816605
sI3418
F0.28598175746221494
sI3419
F0.4034320561681314
sI3420
F0.319768391700479
sI3421
F0.37115770482588045
sI3422
F0.45361666277730095
sI3423
F0.3425137653525856
sI3424
F0.30816192530855685
sI3425
F0.2779153614450123
sI3426
F0.273487944254197
sI3427
F0.26145644220753367
sI3428
F0.273487944254197
sI3429
F0.26145644220753367
sI3430
F0.30816192530855685
sI3431
F0.2779153614450123
sI3432
F0.45361666277730095
sI3433
F0.3425137653525856
sI3434
F0.319768391700479
sI3435
F0.37115770482588045
sI3436
F0.28598175746221494
sI3437
F0.4034320561681314
sI3438
F0.23548419978983826
sI3439
F0.28975693326280777
sI3440
F0.359334895569266
sI3441
F0.307356266773901
sI3442
F0.32207508439898846
sI3443
F0.2878943215910187
sI3444
F0.3502877217163297
sI3445
F0.39892382834403173
sI3446
F0.2898719291606712
sI3447
F0.2932331535548616
sI3448
F0.3224100297338033
sI3449
F0.4015887645544022
sI3450
F0.41581527421252584
sI3451
F0.3326815790962817
sI3452
F0.45361666277730095
sI3453
F0.47202845654375875
sI3454
F0.45361666277730095
sI3455
F0.4072789780273198
sI3456
F0.440634367714651
sI3457
F0.37115770482588045
sI3458
F0.45361666277730095
sI3459
F0.5319853951676884
sI3460
F0.4551735588700075
sI3461
F0.36866297825341776
sI3462
F0.30279507463197763
sI3463
F0.3265796510486626
sI3464
F0.26145644220753367
sI3465
F0.28718577658216576
sI3466
F0.37115770482588045
sI3467
F0.287876548173666
sI3468
F0.2530917667913436
sI3469
F0.3943977821077957
sI3470
F0.37115770482588045
sI3471
F0.2698774048154851
sI3472
F0.37115770482588045
sI3473
F0.4312139171803354
sI3474
F0.37115770482588045
sI3475
F0.2739783215095572
sI3476
F0.2862749095484308
sI3477
F0.45361666277730095
sI3478
F0.37115770482588045
sI3479
F0.4295919907658751
sI3480
F0.272954092584186
sI3481
F0.32967648788757276
sI3482
F0.5170770444816605
sI3483
F0.3693938630762921
sI3484
F0.37115770482588045
sI3485
F0.2876349046992291
sI3486
F0.26145644220753367
sI3487
F0.3718607659873502
sI3488
F0.2866017972133953
sI3489
F0.2911841845665237
sI3490
F0.37115770482588045
sI3491
F0.37115770482588045
sI3492
F0.274592626548707
sI3493
F0.3029152791078141
sI3494
F0.30183730432932726
sI3495
F0.2996995446835124
sI3496
F0.32616092016126796
sI3497
F0.3029152791078141
sI3498
F0.26145644220753367
sI3499
F0.36506213000212273
sI3500
F0.2987744480764127
sI3501
F0.34498710470911087
sI3502
F0.3867677261370614
sI3503
F0.2987744480764127
sI3504
F0.37807850119340497
sI3505
F0.42767453337010247
sI3506
F0.42830428331152925
sI3507
F0.42767453337010247
sI3508
F0.3534212076373133
sI3509
F0.3867677261370614
sI3510
F0.37115770482588045
sI3511
F0.37115770482588045
sI3512
F0.2876349046992291
sI3513
F0.5170770444816605
sI3514
F0.32967648788757276
sI3515
F0.4312139171803354
sI3516
F0.3147921844476548
sI3517
F0.45361666277730095
sI3518
F0.5244309007361362
sI3519
F0.37115770482588045
sI3520
F0.25556483811043473
sI3521
F0.3693938630762921
sI3522
F0.37115770482588045
sI3523
F0.37115770482588045
sI3524
F0.30183730432932726
sI3525
F0.2996995446835124
sI3526
F0.274592626548707
sI3527
F0.3029152791078141
sI3528
F0.26145644220753367
sI3529
F0.36506213000212273
sI3530
F0.32616092016126796
sI3531
F0.3029152791078141
sI3532
F0.2911841845665237
sI3533
F0.32967648788757276
sI3534
F0.272954092584186
sI3535
F0.3693938630762921
sI3536
F0.37115770482588045
sI3537
F0.2876349046992291
sI3538
F0.4295919907658751
sI3539
F0.3718607659873502
sI3540
F0.26145644220753367
sI3541
F0.2911841845665237
sI3542
F0.2866017972133953
sI3543
F0.483081091497028
sI3544
F0.26145644220753367
sI3545
F0.36506213000212273
sI3546
F0.32616092016126796
sI3547
F0.3029152791078141
sI3548
F0.30183730432932726
sI3549
F0.2996995446835124
sI3550
F0.274592626548707
sI3551
F0.3029152791078141
sI3552
F0.37115770482588045
sI3553
F0.37115770482588045
sI3554
F0.37115770482588045
sI3555
F1.0
sI3556
F0.37115770482588045
sI3557
F0.37115770482588045
sI3558
F0.3503192145692992
sI3559
F0.41733817537810564
sI3560
F0.31770274423240347
sI3561
F0.44346984750122836
sI3562
F0.38483959275865537
sI3563
F0.37115770482588045
sI3564
F0.3943977821077957
sI3565
F0.2530917667913436
sI3566
F0.2698774048154851
sI3567
F0.37115770482588045
sI3568
F0.4312139171803354
sI3569
F0.37115770482588045
sI3570
F0.2739783215095572
sI3571
F0.37115770482588045
sI3572
F0.45361666277730095
sI3573
F0.2862749095484308
sI3574
F0.3911042191089364
sI3575
F0.3645982614023189
sI3576
F0.4387827655326121
sI3577
F0.4387827655326121
sI3578
F0.27972373122970084
sI3579
F0.37115770482588045
sI3580
F0.5244309007361362
sI3581
F0.317801018682427
sI3582
F0.4295919907658751
sI3583
F0.3073688502519994
sI3584
F0.31815495225963436
sI3585
F0.33162972469144164
sI3586
F0.41733817537810564
sI3587
F0.4562672154362555
sI3588
F0.5244309007361362
sI3589
F0.3073688502519994
sI3590
F0.45361666277730095
sI3591
F0.32616092016126796
sI3592
F0.28161142155326235
sI3593
F0.4696465245950031
sI3594
F0.27742038327309726
sI3595
F0.4696465245950031
sI3596
F0.27742038327309726
sI3597
F0.32616092016126796
sI3598
F0.28161142155326235
sI3599
F0.3073688502519994
sI3600
F0.45361666277730095
sI3601
F0.4562672154362555
sI3602
F0.5244309007361362
sI3603
F0.33162972469144164
sI3604
F0.41733817537810564
sI3605
F0.3112939587194251
sI3606
F0.3420731128030848
sI3607
F0.2960401278100597
sI3608
F0.32003278410627567
sI3609
F0.32276564293289844
sI3610
F0.34323568528550336
sI3611
F0.3250168183463892
sI3612
F0.33512360406269903
sI3613
F0.31661823279247747
sI3614
F0.3138222852432387
sI3615
F0.41581527421252584
sI3616
F0.3326815790962817
sI3617
F0.37115770482588045
sI3618
F0.37115770482588045
sI3619
F0.45361666277730095
sI3620
F0.4072789780273198
sI3621
F0.440634367714651
sI3622
F0.44346984750122836
sI3623
F0.45945707462876634
sI3624
F0.483081091497028
sI3625
F0.28255591168573113
sI3626
F0.31815495225963436
sI3627
F0.37115770482588045
sI3628
F0.4132805395094745
sI3629
F0.37115770482588045
sI3630
F1.0
sI3631
F0.2862749095484308
sI3632
F0.45361666277730095
sI3633
F0.2530917667913436
sI3634
F0.3943977821077957
sI3635
F0.37115770482588045
sI3636
F0.2698774048154851
sI3637
F0.37115770482588045
sI3638
F0.4312139171803354
sI3639
F0.37115770482588045
sI3640
F0.2739783215095572
sI3641
F0.45361666277730095
sI3642
F0.4072789780273198
sI3643
F0.440634367714651
sI3644
F0.37115770482588045
sI3645
F0.41581527421252584
sI3646
F0.3326815790962817
sI3647
F0.45361666277730095
sI3648
F0.47202845654375875
sI3649
F0.3224100297338033
sI3650
F0.4015887645544022
sI3651
F0.45361666277730095
sI3652
F0.3561246052268552
sI3653
F0.29867215939518227
sI3654
F0.4767357627510898
sI3655
F0.37115770482588045
sI3656
F0.3866327916892876
sI3657
F0.38413876753097853
sI3658
F0.37948950212186017
sI3659
F0.26838087449251796
sI3660
F0.37115770482588045
sI3661
F0.4551735588700075
sI3662
F0.36866297825341776
sI3663
F0.30279507463197763
sI3664
F0.3265796510486626
sI3665
F0.26145644220753367
sI3666
F0.28718577658216576
sI3667
F0.37115770482588045
sI3668
F0.287876548173666
sI3669
F0.45361666277730095
sI3670
F0.5319853951676884
sI3671
F0.45033138132564293
sI3672
F0.37115770482588045
sI3673
F0.2474499597722944
sI3674
F0.4129272819483681
sI3675
F0.45361666277730095
sI3676
F0.4129272819483681
sI3677
F0.4129272819483681
sI3678
F0.26838087449251796
sI3679
F0.2833018101435445
sI3680
F0.37115770482588045
sI3681
F0.38413876753097853
sI3682
F0.3866327916892876
sI3683
F0.37115770482588045
sI3684
F0.4767357627510898
sI3685
F0.29867215939518227
sI3686
F0.37115770482588045
sI3687
F0.25556483811043473
sI3688
F0.45361666277730095
sI3689
F0.5244309007361362
sI3690
F0.4312139171803354
sI3691
F0.3147921844476548
sI3692
F0.5170770444816605
sI3693
F0.32967648788757276
sI3694
F0.37115770482588045
sI3695
F0.37115770482588045
sI3696
F0.37115770482588045
sI3697
F0.4312139171803354
sI3698
F0.37115770482588045
sI3699
F0.2739783215095572
sI3700
F0.2530917667913436
sI3701
F0.3943977821077957
sI3702
F0.37115770482588045
sI3703
F0.2698774048154851
sI3704
F0.2862749095484308
sI3705
F0.45361666277730095
sI3706
F0.34790897969467577
sI3707
F0.41733817537810564
sI3708
F0.37115770482588045
sI3709
F0.3380287813140525
sI3710
F0.29257688265398185
sI3711
F0.37115770482588045
sI3712
F0.2672375831423503
sI3713
F0.5170770444816605
sI3714
F0.4295919907658751
sI3715
F0.37115770482588045
sI3716
F0.38413876753097853
sI3717
F0.37115770482588045
sI3718
F0.37948950212186017
sI3719
F0.38413876753097853
sI3720
F0.37115770482588045
sI3721
F0.26838087449251796
sI3722
F0.4767357627510898
sI3723
F0.29867215939518227
sI3724
F0.3866327916892876
sI3725
F0.37115770482588045
sI3726
F0.3561246052268552
sI3727
F0.26838087449251796
sI3728
F0.26145644220753367
sI3729
F0.37115770482588045
sI3730
F0.29257688265398185
sI3731
F0.37115770482588045
sI3732
F0.2672375831423503
sI3733
F0.2474499597722944
sI3734
F0.34790897969467577
sI3735
F0.41733817537810564
sI3736
F0.37115770482588045
sI3737
F0.3380287813140525
sI3738
F0.29867215939518227
sI3739
F0.3866327916892876
sI3740
F0.38483959275865537
sI3741
F0.29369900872518545
sI3742
F0.37115770482588045
sI3743
F0.32967648788757276
sI3744
F0.41733817537810564
sI3745
F0.32967648788757276
sI3746
F0.3154422296373848
sI3747
F0.30183730432932726
sI3748
F0.31770274423240347
sI3749
F0.41733817537810564
sI3750
F0.44346984750122836
sI3751
F0.44346984750122836
sI3752
F0.37115770482588045
sI3753
F0.287876548173666
sI3754
F0.3503192145692992
sI3755
F0.41733817537810564
sI3756
F0.30279507463197763
sI3757
F0.3265796510486626
sI3758
F0.37115770482588045
sI3759
F1.0
sI3760
F0.48201991606354083
sI3761
F0.3319561049347182
sI3762
F0.2571428571428571
sI3763
F0.3139463060892092
sI3764
F0.3168252329511417
sI3765
F0.26145644220753367
sI3766
F0.3370155390968863
sI3767
F0.3411926157302325
sI3768
F0.489439282912941
sI3769
F0.43528047903360373
sI3770
F0.4504936564931199
sI3771
F0.26145644220753367
sI3772
F0.28252964232226613
sI3773
F0.3867677261370614
sI3774
F0.3038265607501918
sI3775
F0.26145644220753367
sI3776
F0.38413876753097853
sI3777
F0.32776719330987586
sI3778
F0.382424992293809
sI3779
F0.3866327916892876
sI3780
F0.32967648788757276
sI3781
F0.3225156385915272
sI3782
F0.40994838545532086
sI3783
F0.34498710470911087
sI3784
F0.3933750157830916
sI3785
F0.3933750157830916
sI3786
F0.3867677261370614
sI3787
F0.4164948977365525
sI3788
F0.44346984750122836
sI3789
F0.3425137653525856
sI3790
F0.3147921844476548
sI3791
F0.4312139171803354
sI3792
F0.32967648788757276
sI3793
F0.5170770444816605
sI3794
F0.25556483811043473
sI3795
F0.37115770482588045
sI3796
F0.5244309007361362
sI3797
F0.45361666277730095
sI3798
F0.45361666277730095
sI3799
F0.4312139171803354
sI3800
F0.3147921844476548
sI3801
F0.2739783215095572
sI3802
F0.27769021229135443
sI3803
F0.31815495225963436
sI3804
F0.45361666277730095
sI3805
F0.45361666277730095
sI3806
F0.37115770482588045
sI3807
F0.31212498691456786
sI3808
F0.4072789780273198
sI3809
F0.29369900872518545
sI3810
F0.32616092016126796
sI3811
F0.30183730432932726
sI3812
F0.44346984750122836
sI3813
F0.41733817537810564
sI3814
F0.41733817537810564
sI3815
F0.32967648788757276
sI3816
F0.3154422296373848
sI3817
F0.32967648788757276
sI3818
F0.3645982614023189
sI3819
F0.37115770482588045
sI3820
F0.2784870916954602
sI3821
F0.5170770444816605
sI3822
F0.32967648788757276
sI3823
F0.37115770482588045
sI3824
F0.5023561838748253
sI3825
F0.5244309007361362
sI3826
F0.4295919907658751
sI3827
F0.37115770482588045
sI3828
F0.3029152791078141
sI3829
F0.274592626548707
sI3830
F0.2996995446835124
sI3831
F0.30183730432932726
sI3832
F0.3029152791078141
sI3833
F0.32616092016126796
sI3834
F0.36506213000212273
sI3835
F0.26145644220753367
sI3836
F0.37115770482588045
sI3837
F0.37115770482588045
sI3838
F0.32776719330987586
sI3839
F0.38413876753097853
sI3840
F0.26145644220753367
sI3841
F0.3038265607501918
sI3842
F0.3225156385915272
sI3843
F0.32967648788757276
sI3844
F0.3866327916892876
sI3845
F0.382424992293809
sI3846
F0.28252964232226613
sI3847
F0.26145644220753367
sI3848
F0.24816291400036175
sI3849
F0.3630557778423479
sI3850
F0.3059772299351829
sI3851
F0.24816291400036175
sI3852
F0.28125130253374336
sI3853
F0.3630557778423479
sI3854
F0.42824514666618513
sI3855
F0.270523284085879
sI3856
F0.26142854743154487
sI3857
F0.32911432567864224
sI3858
F0.37115770482588045
sI3859
F0.31212498691456786
sI3860
F0.45361666277730095
sI3861
F0.45361666277730095
sI3862
F0.27769021229135443
sI3863
F0.31815495225963436
sI3864
F0.3147921844476548
sI3865
F0.2739783215095572
sI3866
F0.45361666277730095
sI3867
F0.4312139171803354
sI3868
F0.4072789780273198
sI3869
F0.29369900872518545
sI3870
F0.41733817537810564
sI3871
F0.32967648788757276
sI3872
F0.3154422296373848
sI3873
F0.32967648788757276
sI3874
F0.32616092016126796
sI3875
F0.30183730432932726
sI3876
F0.44346984750122836
sI3877
F0.41733817537810564
sI3878
F0.3356975662821614
sI3879
F0.33885758810843836
sI3880
F0.42824514666618513
sI3881
F0.2947323446520732
sI3882
F0.2853689762903662
sI3883
F0.29980008594887875
sI3884
F0.34868328558385886
sI3885
F0.3488832570800021
sI3886
F0.36278708508024726
sI3887
F0.3557575658641393
sI3888
F0.37115770482588045
sI3889
F0.37115770482588045
sI3890
F0.42843823789397756
sI3891
F0.274592626548707
sI3892
F0.3029152791078141
sI3893
F0.30183730432932726
sI3894
F0.4312139171803354
sI3895
F0.32616092016126796
sI3896
F0.3029152791078141
sI3897
F0.26145644220753367
sI3898
F0.36506213000212273
sI3899
F0.4295919907658751
sI3900
F0.37115770482588045
sI3901
F0.37115770482588045
sI3902
F0.37115770482588045
sI3903
F0.27769021229135443
sI3904
F0.31815495225963436
sI3905
F0.3147921844476548
sI3906
F0.2739783215095572
sI3907
F0.37115770482588045
sI3908
F0.31212498691456786
sI3909
F0.45361666277730095
sI3910
F0.45361666277730095
sI3911
F0.4562672154362555
sI3912
F0.45361666277730095
sI3913
F0.4312139171803354
sI3914
F0.32967648788757276
sI3915
F0.272954092584186
sI3916
F0.2911841845665237
sI3917
F0.2866017972133953
sI3918
F0.3718607659873502
sI3919
F0.26145644220753367
sI3920
F0.2876349046992291
sI3921
F0.4295919907658751
sI3922
F0.3693938630762921
sI3923
F0.37115770482588045
sI3924
F0.4312139171803354
sI3925
F0.45361666277730095
sI3926
F0.45361666277730095
sI3927
F0.45361666277730095
sI3928
F0.31212498691456786
sI3929
F0.37115770482588045
sI3930
F0.2739783215095572
sI3931
F0.3147921844476548
sI3932
F0.31815495225963436
sI3933
F0.27769021229135443
sI3934
F0.4129272819483681
sI3935
F0.4129272819483681
sI3936
F0.45361666277730095
sI3937
F0.32776719330987586
sI3938
F0.4129272819483681
sI3939
F0.4129272819483681
sI3940
F0.4129272819483681
sI3941
F0.45361666277730095
sI3942
F0.4129272819483681
sI3943
F0.2474499597722944
sI3944
F0.45033138132564293
sI3945
F0.45033138132564293
sI3946
F0.37115770482588045
sI3947
F0.2833018101435445
sI3948
F0.3357329742132884
sI3949
F0.2724144547389476
sI3950
F0.4312139171803354
sI3951
F0.42843823789397756
sI3952
F0.37115770482588045
sI3953
F0.37115770482588045
sI3954
F0.4562672154362555
sI3955
F0.45361666277730095
sI3956
F0.37115770482588045
sI3957
F0.4295919907658751
sI3958
F0.45033138132564293
sI3959
F0.37129749250148364
sI3960
F0.3555448876557267
sI3961
F0.32772084205051366
sI3962
F0.3992055951545855
sI3963
F0.3737455239775482
sI3964
F0.2905305114065671
sI3965
F0.2916214044896391
sI3966
F0.32142257631408816
sI3967
F0.3158146525767441
sI3968
F0.3149850669857365
sI3969
F0.4312139171803354
sI3970
F0.42843823789397756
sI3971
F0.37115770482588045
sI3972
F0.37115770482588045
sI3973
F0.4562672154362555
sI3974
F0.45361666277730095
sI3975
F0.37115770482588045
sI3976
F0.4295919907658751
sI3977
F0.5170770444816605
sI3978
F0.32967648788757276
sI3979
F0.4312139171803354
sI3980
F0.3147921844476548
sI3981
F0.45361666277730095
sI3982
F0.5244309007361362
sI3983
F0.37115770482588045
sI3984
F0.25556483811043473
sI3985
F0.3029152791078141
sI3986
F0.32616092016126796
sI3987
F0.36506213000212273
sI3988
F0.26145644220753367
sI3989
F0.3029152791078141
sI3990
F0.274592626548707
sI3991
F0.2996995446835124
sI3992
F0.30183730432932726
sI3993
F0.37115770482588045
sI3994
F0.37115770482588045
sI3995
F0.45361666277730095
sI3996
F0.45361666277730095
sI3997
F0.37115770482588045
sI3998
F0.31212498691456786
sI3999
F0.3147921844476548
sI4000
F0.2739783215095572
sI4001
F0.27769021229135443
sI4002
F0.31815495225963436
sI4003
F0.45361666277730095
sI4004
F0.4312139171803354
sI4005
F0.273487944254197
sI4006
F0.26145644220753367
sI4007
F0.28598175746221494
sI4008
F0.4034320561681314
sI4009
F0.319768391700479
sI4010
F0.37115770482588045
sI4011
F0.45361666277730095
sI4012
F0.3425137653525856
sI4013
F0.30816192530855685
sI4014
F0.2779153614450123
sI4015
F0.38483959275865537
sI4016
F0.37115770482588045
sI4017
F0.31770274423240347
sI4018
F0.44346984750122836
sI4019
F0.3503192145692992
sI4020
F0.41733817537810564
sI4021
F0.37115770482588045
sI4022
F0.37115770482588045
sI4023
F0.37115770482588045
sI4024
F1.0
sI4025
F0.37115770482588045
sI4026
F0.26145644220753367
sI4027
F0.4164948977365525
sI4028
F0.44346984750122836
sI4029
F0.2474499597722944
sI4030
F0.2672375831423503
sI4031
F0.37115770482588045
sI4032
F0.29257688265398185
sI4033
F0.3380287813140525
sI4034
F0.37115770482588045
sI4035
F0.41733817537810564
sI4036
F0.34790897969467577
sI4037
F0.45361666277730095
sI4038
F0.5244309007361362
sI4039
F0.37115770482588045
sI4040
F0.25556483811043473
sI4041
F0.5170770444816605
sI4042
F0.32967648788757276
sI4043
F0.4312139171803354
sI4044
F0.3147921844476548
sI4045
F0.37115770482588045
sI4046
F0.37115770482588045
sI4047
F0.41733817537810564
sI4048
F0.37115770482588045
sI4049
F1.0
sI4050
F0.3503192145692992
sI4051
F0.41733817537810564
sI4052
F0.37115770482588045
sI4053
F0.37115770482588045
sI4054
F0.38483959275865537
sI4055
F0.37115770482588045
sI4056
F0.31770274423240347
sI4057
F0.44346984750122836
sI4058
F0.41733817537810564
sI4059
F0.33162972469144164
sI4060
F0.27742038327309726
sI4061
F0.4696465245950031
sI4062
F0.28161142155326235
sI4063
F0.32616092016126796
sI4064
F0.45361666277730095
sI4065
F0.3073688502519994
sI4066
F0.5244309007361362
sI4067
F0.4562672154362555
sI4068
F0.3323972879414599
sI4069
F0.394776492341633
sI4070
F0.3597839312902897
sI4071
F0.2987744480764127
sI4072
F0.3323972879414599
sI4073
F0.32397655664694286
sI4074
F0.42136951714885507
sI4075
F0.4064343887829103
sI4076
F0.34498710470911087
sI4077
F0.34993136549760295
sI4078
F0.4072789780273198
sI4079
F0.29369900872518545
sI4080
F0.44346984750122836
sI4081
F0.41733817537810564
sI4082
F0.32616092016126796
sI4083
F0.30183730432932726
sI4084
F0.3154422296373848
sI4085
F0.32967648788757276
sI4086
F0.41733817537810564
sI4087
F0.32967648788757276
sI4088
F0.2530917667913436
sI4089
F0.3943977821077957
sI4090
F0.37115770482588045
sI4091
F0.2698774048154851
sI4092
F0.37115770482588045
sI4093
F0.4312139171803354
sI4094
F0.37115770482588045
sI4095
F0.2739783215095572
sI4096
F0.3503192145692992
sI4097
F0.41733817537810564
sI4098
F0.37115770482588045
sI4099
F0.37115770482588045
sI4100
F0.38483959275865537
sI4101
F0.37115770482588045
sI4102
F0.31770274423240347
sI4103
F0.44346984750122836
sI4104
F0.37115770482588045
sI4105
F1.0
sI4106
F0.26145644220753367
sI4107
F0.37115770482588045
sI4108
F0.37115770482588045
sI4109
F0.3380287813140525
sI4110
F0.34790897969467577
sI4111
F0.41733817537810564
sI4112
F0.2672375831423503
sI4113
F0.2474499597722944
sI4114
F0.29257688265398185
sI4115
F0.37115770482588045
sI4116
F0.4312139171803354
sI4117
F0.3147921844476548
sI4118
F0.5170770444816605
sI4119
F0.32967648788757276
sI4120
F0.37115770482588045
sI4121
F0.25556483811043473
sI4122
F0.45361666277730095
sI4123
F0.5244309007361362
sI4124
F0.37115770482588045
sI4125
F0.37115770482588045
sI4126
F0.3866327916892876
sI4127
F0.37115770482588045
sI4128
F0.4767357627510898
sI4129
F0.29867215939518227
sI4130
F0.37115770482588045
sI4131
F0.26838087449251796
sI4132
F0.37948950212186017
sI4133
F0.38413876753097853
sI4134
F0.3561246052268552
sI4135
F0.45361666277730095
sI4136
F0.32967648788757276
sI4137
F0.5170770444816605
sI4138
F0.3147921844476548
sI4139
F0.4312139171803354
sI4140
F0.5244309007361362
sI4141
F0.45361666277730095
sI4142
F0.25556483811043473
sI4143
F0.37115770482588045
sI4144
F0.37115770482588045
sI4145
F0.37115770482588045
sI4146
F0.4295919907658751
sI4147
F0.37115770482588045
sI4148
F0.5023561838748253
sI4149
F0.5244309007361362
sI4150
F0.32967648788757276
sI4151
F0.37115770482588045
sI4152
F0.2784870916954602
sI4153
F0.5170770444816605
sI4154
F0.3645982614023189
sI4155
F0.37115770482588045
sI4156
F0.3224879457063428
sI4157
F0.37115770482588045
sI4158
F0.2474499597722944
sI4159
F0.4129272819483681
sI4160
F0.45033138132564293
sI4161
F0.45033138132564293
sI4162
F0.4129272819483681
sI4163
F0.4129272819483681
sI4164
F0.45361666277730095
sI4165
F0.4129272819483681
sI4166
F0.2833018101435445
sI4167
F0.37115770482588045
sI4168
F0.37115770482588045
sI4169
F0.4312139171803354
sI4170
F0.37115770482588045
sI4171
F0.2739783215095572
sI4172
F0.2530917667913436
sI4173
F0.3943977821077957
sI4174
F0.37115770482588045
sI4175
F0.2698774048154851
sI4176
F0.2862749095484308
sI4177
F0.45361666277730095
sI4178
F0.3380287813140525
sI4179
F0.37115770482588045
sI4180
F0.41733817537810564
sI4181
F0.34790897969467577
sI4182
F0.2474499597722944
sI4183
F0.2672375831423503
sI4184
F0.37115770482588045
sI4185
F0.29257688265398185
sI4186
F0.37115770482588045
sI4187
F0.26145644220753367
sI4188
F0.37115770482588045
sI4189
F0.37115770482588045
sI4190
F0.45361666277730095
sI4191
F0.5244309007361362
sI4192
F0.37115770482588045
sI4193
F0.25556483811043473
sI4194
F0.5170770444816605
sI4195
F0.32967648788757276
sI4196
F0.4312139171803354
sI4197
F0.3147921844476548
sI4198
F0.4562672154362555
sI4199
F0.5244309007361362
sI4200
F0.3073688502519994
sI4201
F0.45361666277730095
sI4202
F0.32616092016126796
sI4203
F0.28161142155326235
sI4204
F0.4696465245950031
sI4205
F0.27742038327309726
sI4206
F0.33162972469144164
sI4207
F0.41733817537810564
sI4208
F0.45361666277730095
sI4209
F0.45361666277730095
sI4210
F0.37115770482588045
sI4211
F0.31212498691456786
sI4212
F0.3147921844476548
sI4213
F0.2739783215095572
sI4214
F0.27769021229135443
sI4215
F0.31815495225963436
sI4216
F0.45361666277730095
sI4217
F0.4312139171803354
sI4218
F0.37115770482588045
sI4219
F0.319768391700479
sI4220
F0.4034320561681314
sI4221
F0.28598175746221494
sI4222
F0.2779153614450123
sI4223
F0.30816192530855685
sI4224
F0.3425137653525856
sI4225
F0.45361666277730095
sI4226
F0.26145644220753367
sI4227
F0.273487944254197
sI4228
F0.37115770482588045
sI4229
F1.0
sI4230
F0.38483959275865537
sI4231
F0.37115770482588045
sI4232
F0.31770274423240347
sI4233
F0.44346984750122836
sI4234
F0.3503192145692992
sI4235
F0.41733817537810564
sI4236
F0.37115770482588045
sI4237
F0.37115770482588045
sI4238
F0.5461515837522412
sI4239
F0.25072253753208035
sI4240
F0.3323972879414599
sI4241
F0.3597839312902897
sI4242
F0.4917855139261635
sI4243
F0.3224879457063428
sI4244
F0.47931869372352565
sI4245
F0.42136951714885507
sI4246
F0.35732708453706935
sI4247
F0.3363197618583143
sI4248
F0.394776492341633
sI4249
F0.46042710455989394
sI4250
F0.37115770482588045
sI4251
F0.2698774048154851
sI4252
F0.2530917667913436
sI4253
F0.3943977821077957
sI4254
F0.37115770482588045
sI4255
F0.2739783215095572
sI4256
F0.37115770482588045
sI4257
F0.4312139171803354
sI4258
F0.38413876753097853
sI4259
F0.2862749095484308
sI4260
F0.45361666277730095
sI4261
F0.2779153614450123
sI4262
F0.2862749095484308
sI4263
F0.45361666277730095
sI4264
F0.37115770482588045
sI4265
F0.2739783215095572
sI4266
F0.37115770482588045
sI4267
F0.4312139171803354
sI4268
F0.37115770482588045
sI4269
F0.2698774048154851
sI4270
F0.2530917667913436
sI4271
F0.3943977821077957
sI4272
F0.37115770482588045
sI4273
F0.2784870916954602
sI4274
F0.4295919907658751
sI4275
F0.3645982614023189
sI4276
F0.5244309007361362
sI4277
F0.5023561838748253
sI4278
F0.37115770482588045
sI4279
F0.32967648788757276
sI4280
F0.28718577658216576
sI4281
F0.26145644220753367
sI4282
F0.287876548173666
sI4283
F0.37115770482588045
sI4284
F0.36866297825341776
sI4285
F0.4551735588700075
sI4286
F0.3265796510486626
sI4287
F0.30279507463197763
sI4288
F0.5319853951676884
sI4289
F0.45361666277730095
sI4290
F0.28718577658216576
sI4291
F0.4551735588700075
sI4292
F0.36866297825341776
sI4293
F0.30279507463197763
sI4294
F0.3265796510486626
sI4295
F0.26145644220753367
sI4296
F0.35732708453706935
sI4297
F0.37115770482588045
sI4298
F0.287876548173666
sI4299
F0.35732708453706935
sI4300
F0.45361666277730095
sI4301
F0.5319853951676884
sI4302
F0.35732708453706935
sI4303
F0.26145644220753367
sI4304
F0.3038265607501918
sI4305
F0.32776719330987586
sI4306
F0.38413876753097853
sI4307
F0.3866327916892876
sI4308
F0.382424992293809
sI4309
F0.3225156385915272
sI4310
F0.32967648788757276
sI4311
F0.28252964232226613
sI4312
F0.26145644220753367
sI4313
F0.45361666277730095
sI4314
F0.5319853951676884
sI4315
F0.37115770482588045
sI4316
F0.287876548173666
sI4317
F0.26145644220753367
sI4318
F0.28718577658216576
sI4319
F0.30279507463197763
sI4320
F0.3265796510486626
sI4321
F0.4551735588700075
sI4322
F0.36866297825341776
sI4323
F0.31815495225963436
sI4324
F0.28255591168573113
sI4325
F0.483081091497028
sI4326
F0.45945707462876634
sI4327
F0.42843823789397756
sI4328
F0.287876548173666
sI4329
F0.4132805395094745
sI4330
F0.37115770482588045
sI4331
F0.44346984750122836
sI4332
F0.4164948977365525
sI4333
F0.45361666277730095
sI4334
F0.5319853951676884
sI4335
F0.4072789780273198
sI4336
F0.29369900872518545
sI4337
F0.41733817537810564
sI4338
F0.32967648788757276
sI4339
F0.3154422296373848
sI4340
F0.32967648788757276
sI4341
F0.32616092016126796
sI4342
F0.30183730432932726
sI4343
F0.44346984750122836
sI4344
F0.41733817537810564
sI4345
F0.272954092584186
sI4346
F0.32967648788757276
sI4347
F0.26145644220753367
sI4348
F0.3718607659873502
sI4349
F0.2866017972133953
sI4350
F0.2911841845665237
sI4351
F0.37115770482588045
sI4352
F0.3693938630762921
sI4353
F0.4295919907658751
sI4354
F0.2876349046992291
sI4355
F0.3038265607501918
sI4356
F0.26145644220753367
sI4357
F0.38413876753097853
sI4358
F0.32776719330987586
sI4359
F0.382424992293809
sI4360
F0.3866327916892876
sI4361
F0.32967648788757276
sI4362
F0.3225156385915272
sI4363
F0.26145644220753367
sI4364
F0.28252964232226613
sI4365
F0.26145644220753367
sI4366
F0.4387827655326121
sI4367
F0.4387827655326121
sI4368
F0.37115770482588045
sI4369
F0.27972373122970084
sI4370
F0.317801018682427
sI4371
F0.5244309007361362
sI4372
F0.3073688502519994
sI4373
F0.4295919907658751
sI4374
F0.3645982614023189
sI4375
F0.3911042191089364
sI4376
F0.33162972469144164
sI4377
F0.41733817537810564
sI4378
F0.4562672154362555
sI4379
F0.5244309007361362
sI4380
F0.3073688502519994
sI4381
F0.45361666277730095
sI4382
F0.32616092016126796
sI4383
F0.28161142155326235
sI4384
F0.4696465245950031
sI4385
F0.27742038327309726
sI4386
F0.4072789780273198
sI4387
F0.29369900872518545
sI4388
F0.32616092016126796
sI4389
F0.30183730432932726
sI4390
F0.44346984750122836
sI4391
F0.41733817537810564
sI4392
F0.41733817537810564
sI4393
F0.32967648788757276
sI4394
F0.3154422296373848
sI4395
F0.32967648788757276
sI4396
F0.45361666277730095
sI4397
F1.0
sI4398
F0.4406945143644699
sI4399
F0.3867677261370614
sI4400
F0.42767453337010247
sI4401
F0.3597839312902897
sI4402
F0.27928915798447274
sI4403
F0.3597839312902897
sI4404
F0.32118253168214367
sI4405
F0.3323972879414599
sI4406
F0.47931869372352565
sI4407
F0.46042710455989394
sI4408
F0.3323972879414599
sI4409
F0.3425143025883558
sI4410
F0.46042710455989394
sI4411
F0.46042710455989394
sI4412
F0.46076442170842136
sI4413
F0.5817975019212857
sI4414
F0.2892271003382416
sI4415
F0.31343263485636425
sI4416
F0.35386743665041603
sI4417
F0.327739121134362
sI4418
F0.27171696620139096
sI4419
F0.29511737779703107
sI4420
F0.27875875991484905
sI4421
F0.3088856936864922
sI4422
F0.3088856936864922
sI4423
F0.28517591762526895
sI4424
F0.38321641935944756
sI4425
F0.29868618644983685
sI4426
F0.3124097549314972
sI4427
F0.2883389676433096
sI4428
F0.354174578670212
sI4429
F0.26142854743154487
sI4430
F0.3304057605063782
sI4431
F0.32116890693892236
sI4432
F0.2952877090689583
sI4433
F0.36841378874316066
sI4434
F0.3357329742132884
sI4435
F0.2724144547389476
sI4436
F0.37115770482588045
sI4437
F0.4295919907658751
sI4438
F0.4562672154362555
sI4439
F0.45361666277730095
sI4440
F0.37115770482588045
sI4441
F0.37115770482588045
sI4442
F0.4312139171803354
sI4443
F0.42843823789397756
sI4444
F0.30279507463197763
sI4445
F0.4291348854352687
sI4446
F0.3265796510486626
sI4447
F0.5079840016120293
sI4448
F0.312483548583179
sI4449
F0.3747504600298059
sI4450
F0.3092119583411915
sI4451
F0.3777277490115498
sI4452
F0.4551735588700075
sI4453
F0.36860240221090024
sI4454
F0.3936873895776164
sI4455
F0.36866297825341776
sI4456
F0.37115770482588045
sI4457
F0.43528047903360373
sI4458
F0.26145644220753367
sI4459
F0.28718577658216576
sI4460
F0.3154422296373848
sI4461
F0.32967648788757276
sI4462
F0.41733817537810564
sI4463
F0.32967648788757276
sI4464
F0.44346984750122836
sI4465
F0.41733817537810564
sI4466
F0.32616092016126796
sI4467
F0.30183730432932726
sI4468
F0.4072789780273198
sI4469
F0.29369900872518545
sI4470
F0.2571428571428571
sI4471
F0.3139463060892092
sI4472
F0.48201991606354083
sI4473
F0.37115770482588045
sI4474
F0.37115770482588045
sI4475
F0.4312139171803354
sI4476
F0.3319561049347182
sI4477
F0.37115770482588045
sI4478
F0.4295919907658751
sI4479
F0.4562672154362555
sI4480
F0.45361666277730095
sI4481
F0.3370155390968863
sI4482
F0.3357329742132884
sI4483
F0.42843823789397756
sI4484
F0.37115770482588045
sI4485
F0.37115770482588045
sI4486
F0.45361666277730095
sI4487
F0.41733817537810564
sI4488
F0.3503192145692992
sI4489
F0.37115770482588045
sI4490
F0.37115770482588045
sI4491
F0.37115770482588045
sI4492
F0.38483959275865537
sI4493
F0.44346984750122836
sI4494
F0.31770274423240347
sI4495
F1.0
sI4496
F0.37115770482588045
sI4497
F1.0
sI4498
F0.37115770482588045
sI4499
F0.28718577658216576
sI4500
F0.38483959275865537
sI4501
F0.44346984750122836
sI4502
F0.31770274423240347
sI4503
F0.41733817537810564
sI4504
F0.3503192145692992
sI4505
F0.37115770482588045
sI4506
F0.37115770482588045
sI4507
F0.48201991606354083
sI4508
F0.3319561049347182
sI4509
F0.27742038327309726
sI4510
F0.3139463060892092
sI4511
F0.5244309007361362
sI4512
F0.4562672154362555
sI4513
F0.45361666277730095
sI4514
F0.3073688502519994
sI4515
F0.29369900872518545
sI4516
F0.4072789780273198
sI4517
F0.41733817537810564
sI4518
F0.33162972469144164
sI4519
F0.37115770482588045
sI4520
F0.37115770482588045
sI4521
F0.32616092016126796
sI4522
F0.3029152791078141
sI4523
F0.26145644220753367
sI4524
F0.36506213000212273
sI4525
F0.274592626548707
sI4526
F0.3029152791078141
sI4527
F0.30183730432932726
sI4528
F0.3073688502519994
sI4529
F0.37115770482588045
sI4530
F0.2698774048154851
sI4531
F0.2530917667913436
sI4532
F0.3943977821077957
sI4533
F0.37115770482588045
sI4534
F0.2739783215095572
sI4535
F0.37115770482588045
sI4536
F0.4312139171803354
sI4537
F0.2862749095484308
sI4538
F0.45361666277730095
sI4539
F0.489439282912941
sI4540
F0.43528047903360373
sI4541
F0.3370155390968863
sI4542
F0.3411926157302325
sI4543
F0.3168252329511417
sI4544
F0.26145644220753367
sI4545
F0.2571428571428571
sI4546
F0.3139463060892092
sI4547
F0.48201991606354083
sI4548
F0.3319561049347182
sI4549
F0.38413876753097853
sI4550
F0.37948950212186017
sI4551
F0.26838087449251796
sI4552
F0.37115770482588045
sI4553
F0.29867215939518227
sI4554
F0.4767357627510898
sI4555
F0.37115770482588045
sI4556
F0.3866327916892876
sI4557
F0.45361666277730095
sI4558
F0.3561246052268552
sI4559
F0.37115770482588045
sI4560
F0.2833018101435445
sI4561
F0.4129272819483681
sI4562
F0.4129272819483681
sI4563
F0.4129272819483681
sI4564
F0.45361666277730095
sI4565
F0.4129272819483681
sI4566
F0.2474499597722944
sI4567
F0.45033138132564293
sI4568
F0.45033138132564293
sI4569
F0.37115770482588045
sI4570
F0.37115770482588045
sI4571
F0.41733817537810564
sI4572
F0.43528047903360373
sI4573
F0.489439282912941
sI4574
F0.3503192145692992
sI4575
F0.26145644220753367
sI4576
F0.3168252329511417
sI4577
F0.3411926157302325
sI4578
F0.3370155390968863
sI4579
F0.3319561049347182
sI4580
F0.48201991606354083
sI4581
F0.3139463060892092
sI4582
F0.2571428571428571
sI4583
F0.37115770482588045
sI4584
F0.38483959275865537
sI4585
F0.37948950212186017
sI4586
F0.38413876753097853
sI4587
F0.37115770482588045
sI4588
F0.26838087449251796
sI4589
F0.4767357627510898
sI4590
F0.29867215939518227
sI4591
F0.3866327916892876
sI4592
F0.37115770482588045
sI4593
F0.3561246052268552
sI4594
F0.45361666277730095
sI4595
F0.28598175746221494
sI4596
F0.4034320561681314
sI4597
F0.319768391700479
sI4598
F0.37115770482588045
sI4599
F0.45361666277730095
sI4600
F0.3425137653525856
sI4601
F0.30816192530855685
sI4602
F0.2779153614450123
sI4603
F0.273487944254197
sI4604
F0.26145644220753367
sI4605
F0.2530917667913436
sI4606
F0.3943977821077957
sI4607
F0.37115770482588045
sI4608
F0.2698774048154851
sI4609
F0.37115770482588045
sI4610
F0.4312139171803354
sI4611
F0.37115770482588045
sI4612
F0.2739783215095572
sI4613
F0.2862749095484308
sI4614
F0.45361666277730095
sI4615
F0.46042710455989394
sI4616
F0.35732708453706935
sI4617
F0.37115770482588045
sI4618
F0.37115770482588045
sI4619
F0.45361666277730095
sI4620
F0.5244309007361362
sI4621
F0.37115770482588045
sI4622
F0.25556483811043473
sI4623
F0.5170770444816605
sI4624
F0.32967648788757276
sI4625
F0.4312139171803354
sI4626
F0.3147921844476548
sI4627
F0.35732708453706935
sI4628
F0.34498710470911087
sI4629
F0.4065529905442052
sI4630
F0.46304342543830235
sI4631
F0.4396445130303614
sI4632
F0.3867677261370614
sI4633
F0.37786180197899255
sI4634
F0.4917855139261635
sI4635
F0.30360531309297917
sI4636
F0.34993136549760295
sI4637
F0.34613743624806204
sI4638
F0.2980050872975556
sI4639
F0.2980050872975556
sI4640
F0.2956099609467493
sI4641
F0.30170700709219644
sI4642
F0.35386743665041603
sI4643
F0.3150129313563814
sI4644
F0.33874985567796273
sI4645
F0.29931449173531094
sI4646
F0.3150129313563814
sI4647
F0.37115770482588045
sI4648
F0.37115770482588045
sI4649
F0.42843823789397756
sI4650
F0.4312139171803354
sI4651
F0.4295919907658751
sI4652
F0.37115770482588045
sI4653
F0.45361666277730095
sI4654
F0.4562672154362555
sI4655
F0.4164948977365525
sI4656
F0.2724144547389476
sI4657
F0.3357329742132884
sI4658
F0.44346984750122836
sI4659
F0.2320363185476149
sI4660
F0.2784987757774121
sI4661
F0.2796115094764832
sI4662
F0.30731101402478284
sI4663
F0.2699946766074877
sI4664
F0.3078221943813036
sI4665
F0.4153616624859564
sI4666
F0.38321641935944756
sI4667
F0.3478063763213339
sI4668
F0.40653137261668826
sI4669
F0.37115770482588045
sI4670
F0.483081091497028
sI4671
F0.37115770482588045
sI4672
F0.4312139171803354
sI4673
F0.37115770482588045
sI4674
F0.2698774048154851
sI4675
F0.3357329742132884
sI4676
F0.2724144547389476
sI4677
F0.2530917667913436
sI4678
F0.37115770482588045
sI4679
F0.4295919907658751
sI4680
F0.4562672154362555
sI4681
F0.45361666277730095
sI4682
F0.37115770482588045
sI4683
F0.37115770482588045
sI4684
F0.4312139171803354
sI4685
F0.42843823789397756
sI4686
F0.3350997759312792
sI4687
F0.3569780134638439
sI4688
F0.396768757665718
sI4689
F0.3000559388748207
sI4690
F0.31200799595552725
sI4691
F0.3859635332635341
sI4692
F0.28374838583768164
sI4693
F0.26825662193065725
sI4694
F0.24816291400036175
sI4695
F0.27168734792640065
sI4696
F0.30279507463197763
sI4697
F0.3265796510486626
sI4698
F0.4551735588700075
sI4699
F0.36866297825341776
sI4700
F0.37115770482588045
sI4701
F0.287876548173666
sI4702
F0.26145644220753367
sI4703
F0.28718577658216576
sI4704
F0.45361666277730095
sI4705
F0.5319853951676884
sI4706
F0.37115770482588045
sI4707
F1.0
sI4708
F0.31770274423240347
sI4709
F0.44346984750122836
sI4710
F0.38483959275865537
sI4711
F0.37115770482588045
sI4712
F0.37115770482588045
sI4713
F0.37115770482588045
sI4714
F0.3503192145692992
sI4715
F0.41733817537810564
sI4716
F0.45361666277730095
sI4717
F0.37115770482588045
sI4718
F0.42843823789397756
sI4719
F0.43528047903360373
sI4720
F0.483081091497028
sI4721
F0.45945707462876634
sI4722
F0.31815495225963436
sI4723
F0.28255591168573113
sI4724
F0.44346984750122836
sI4725
F0.4164948977365525
sI4726
F0.3425137653525856
sI4727
F0.30816192530855685
sI4728
F0.2779153614450123
sI4729
F0.4034320561681314
sI4730
F0.28598175746221494
sI4731
F0.37115770482588045
sI4732
F0.319768391700479
sI4733
F0.3425137653525856
sI4734
F0.45361666277730095
sI4735
F0.2779153614450123
sI4736
F0.30816192530855685
sI4737
F0.26145644220753367
sI4738
F0.273487944254197
sI4739
F0.2672375831423503
sI4740
F0.2474499597722944
sI4741
F0.37115770482588045
sI4742
F0.37115770482588045
sI4743
F0.3425137653525856
sI4744
F0.45361666277730095
sI4745
F0.34790897969467577
sI4746
F0.41733817537810564
sI4747
F0.26145644220753367
sI4748
F0.37115770482588045
sI4749
F0.44346984750122836
sI4750
F0.41733817537810564
sI4751
F0.32616092016126796
sI4752
F0.30183730432932726
sI4753
F0.3154422296373848
sI4754
F0.32967648788757276
sI4755
F0.41733817537810564
sI4756
F0.32967648788757276
sI4757
F0.4072789780273198
sI4758
F0.29369900872518545
sI4759
F0.4295919907658751
sI4760
F0.3073688502519994
sI4761
F0.5244309007361362
sI4762
F0.317801018682427
sI4763
F0.26145644220753367
sI4764
F0.37115770482588045
sI4765
F0.4387827655326121
sI4766
F0.4387827655326121
sI4767
F0.2672375831423503
sI4768
F0.2474499597722944
sI4769
F0.29257688265398185
sI4770
F0.37115770482588045
sI4771
F0.37115770482588045
sI4772
F0.3380287813140525
sI4773
F0.34790897969467577
sI4774
F0.41733817537810564
sI4775
F0.45361666277730095
sI4776
F0.44346984750122836
sI4777
F0.4164948977365525
sI4778
F0.31815495225963436
sI4779
F0.28255591168573113
sI4780
F0.483081091497028
sI4781
F0.45945707462876634
sI4782
F0.42843823789397756
sI4783
F0.43528047903360373
sI4784
F0.4132805395094745
sI4785
F0.37115770482588045
sI4786
F0.32967648788757276
sI4787
F0.3154422296373848
sI4788
F0.32967648788757276
sI4789
F0.41733817537810564
sI4790
F0.41733817537810564
sI4791
F0.44346984750122836
sI4792
F0.30183730432932726
sI4793
F0.32616092016126796
sI4794
F0.29369900872518545
sI4795
F0.4072789780273198
sI4796
F0.32967648788757276
sI4797
F0.272954092584186
sI4798
F0.3693938630762921
sI4799
F0.37115770482588045
sI4800
F0.2876349046992291
sI4801
F0.4295919907658751
sI4802
F0.3718607659873502
sI4803
F0.26145644220753367
sI4804
F0.2911841845665237
sI4805
F0.2866017972133953
sI4806
F0.4129272819483681
sI4807
F0.4129272819483681
sI4808
F0.4129272819483681
sI4809
F0.45361666277730095
sI4810
F0.4129272819483681
sI4811
F0.2474499597722944
sI4812
F0.45033138132564293
sI4813
F0.45033138132564293
sI4814
F0.37115770482588045
sI4815
F0.2833018101435445
sI4816
F0.2571428571428571
sI4817
F0.28598175746221494
sI4818
F0.4034320561681314
sI4819
F0.287876548173666
sI4820
F0.37115770482588045
sI4821
F0.28718577658216576
sI4822
F0.26145644220753367
sI4823
F0.3265796510486626
sI4824
F0.30279507463197763
sI4825
F0.36866297825341776
sI4826
F0.4551735588700075
sI4827
F0.5319853951676884
sI4828
F0.45361666277730095
sI4829
F0.45361666277730095
sI4830
F0.4312139171803354
sI4831
F0.45361666277730095
sI4832
F0.45361666277730095
sI4833
F0.37115770482588045
sI4834
F0.31212498691456786
sI4835
F0.3147921844476548
sI4836
F0.2739783215095572
sI4837
F0.27769021229135443
sI4838
F0.31815495225963436
sI4839
F0.34498710470911087
sI4840
F0.4226260157517667
sI4841
F0.41080002929977205
sI4842
F0.42767453337010247
sI4843
F0.34993136549760295
sI4844
F0.3230135681516335
sI4845
F0.42136951714885507
sI4846
F0.34993136549760295
sI4847
F0.34993136549760295
sI4848
F0.32993528746916856
sI4849
F0.26145644220753367
sI4850
F0.3370155390968863
sI4851
F0.31770274423240347
sI4852
F0.44346984750122836
sI4853
F0.38483959275865537
sI4854
F0.37115770482588045
sI4855
F0.37115770482588045
sI4856
F0.37115770482588045
sI4857
F0.3503192145692992
sI4858
F0.41733817537810564
sI4859
F0.37115770482588045
sI4860
F1.0
sI4861
F0.29649670024117986
sI4862
F0.2983469177190968
sI4863
F0.3192766692045524
sI4864
F0.34263306850956227
sI4865
F0.32959134229519965
sI4866
F0.351318332068033
sI4867
F0.2960401278100597
sI4868
F0.2859123237717427
sI4869
F0.3715713993775531
sI4870
F0.2571102288415816
sI4871
F0.37115770482588045
sI4872
F0.4295919907658751
sI4873
F0.5244309007361362
sI4874
F0.5023561838748253
sI4875
F0.37115770482588045
sI4876
F0.32967648788757276
sI4877
F0.5170770444816605
sI4878
F0.2784870916954602
sI4879
F0.37115770482588045
sI4880
F0.3645982614023189
sI4881
F0.3630557778423479
sI4882
F0.3717665476925323
sI4883
F0.26127179689410596
sI4884
F0.31944770780353793
sI4885
F0.31604728030976825
sI4886
F0.3842181711332705
sI4887
F0.3189126879680534
sI4888
F0.40913872799089523
sI4889
F0.2465391803986196
sI4890
F0.33867496900709326
sI4891
F0.4072789780273198
sI4892
F0.29369900872518545
sI4893
F0.41733817537810564
sI4894
F0.32967648788757276
sI4895
F0.3154422296373848
sI4896
F0.32967648788757276
sI4897
F0.32616092016126796
sI4898
F0.30183730432932726
sI4899
F0.44346984750122836
sI4900
F0.41733817537810564
sI4901
F0.40652737193389404
sI4902
F0.37971275830590967
sI4903
F0.30852253888948195
sI4904
F0.43095003073694443
sI4905
F0.31574246067779504
sI4906
F0.31355489851322554
sI4907
F0.4068328893328758
sI4908
F0.39877074586493244
sI4909
F0.3250629449781303
sI4910
F0.44943388935926887
sI4911
F0.44346984750122836
sI4912
F0.37115770482588045
sI4913
F0.37115770482588045
sI4914
F0.5244309007361362
sI4915
F0.45361666277730095
sI4916
F0.25556483811043473
sI4917
F0.37115770482588045
sI4918
F0.32967648788757276
sI4919
F0.5170770444816605
sI4920
F0.3147921844476548
sI4921
F0.4312139171803354
sI4922
F0.26145644220753367
sI4923
F0.273487944254197
sI4924
F0.4034320561681314
sI4925
F0.28598175746221494
sI4926
F0.37115770482588045
sI4927
F0.319768391700479
sI4928
F0.3425137653525856
sI4929
F0.45361666277730095
sI4930
F0.2779153614450123
sI4931
F0.30816192530855685
sI4932
F0.35732708453706935
sI4933
F0.32118253168214367
sI4934
F0.28161142155326235
sI4935
F0.32616092016126796
sI4936
F0.27742038327309726
sI4937
F0.4696465245950031
sI4938
F0.5244309007361362
sI4939
F0.4562672154362555
sI4940
F0.45361666277730095
sI4941
F0.3073688502519994
sI4942
F0.41733817537810564
sI4943
F0.33162972469144164
sI4944
F0.46042710455989394
sI4945
F0.3230135681516335
sI4946
F0.3718607659873502
sI4947
F0.26145644220753367
sI4948
F0.2911841845665237
sI4949
F0.2866017972133953
sI4950
F0.3693938630762921
sI4951
F0.37115770482588045
sI4952
F0.2876349046992291
sI4953
F0.4295919907658751
sI4954
F0.32967648788757276
sI4955
F0.272954092584186
sI4956
F0.45361666277730095
sI4957
F0.4312139171803354
sI4958
F0.37115770482588045
sI4959
F0.31212498691456786
sI4960
F0.45361666277730095
sI4961
F0.45361666277730095
sI4962
F0.27769021229135443
sI4963
F0.31815495225963436
sI4964
F0.3147921844476548
sI4965
F0.2739783215095572
sI4966
F0.37115770482588045
sI4967
F0.4295919907658751
sI4968
F0.37115770482588045
sI4969
F0.3645982614023189
sI4970
F0.37115770482588045
sI4971
F0.2784870916954602
sI4972
F0.5170770444816605
sI4973
F0.32967648788757276
sI4974
F0.37115770482588045
sI4975
F0.5023561838748253
sI4976
F0.5244309007361362
sI4977
F0.32616092016126796
sI4978
F0.3029152791078141
sI4979
F0.26145644220753367
sI4980
F0.36506213000212273
sI4981
F0.274592626548707
sI4982
F0.3029152791078141
sI4983
F0.30183730432932726
sI4984
F0.2996995446835124
sI4985
F0.37115770482588045
sI4986
F0.37115770482588045
sI4987
F0.2724144547389476
sI4988
F0.3357329742132884
sI4989
F0.45361666277730095
sI4990
F0.4562672154362555
sI4991
F0.4295919907658751
sI4992
F0.37115770482588045
sI4993
F0.42843823789397756
sI4994
F0.4312139171803354
sI4995
F0.37115770482588045
sI4996
F0.37115770482588045
sI4997
F0.4034320561681314
sI4998
F0.28598175746221494
sI4999
F0.2876349046992291
sI5000
F0.4295919907658751
sI5001
F0.3425137653525856
sI5002
F0.45361666277730095
sI5003
F0.37948950212186017
sI5004
F0.38413876753097853
sI5005
F0.37115770482588045
sI5006
F0.26838087449251796
sI5007
F0.4767357627510898
sI5008
F0.29867215939518227
sI5009
F0.3866327916892876
sI5010
F0.37115770482588045
sI5011
F0.30816192530855685
sI5012
F0.3561246052268552
sI5013
F0.45361666277730095
sI5014
F0.4015887645544022
sI5015
F0.3224100297338033
sI5016
F0.3370155390968863
sI5017
F0.3411926157302325
sI5018
F0.3168252329511417
sI5019
F0.26145644220753367
sI5020
F0.2571428571428571
sI5021
F0.3139463060892092
sI5022
F0.45361666277730095
sI5023
F0.2862749095484308
sI5024
F0.2698774048154851
sI5025
F0.37115770482588045
sI5026
F0.489439282912941
sI5027
F0.2530917667913436
sI5028
F0.2739783215095572
sI5029
F0.37115770482588045
sI5030
F0.4312139171803354
sI5031
F0.37115770482588045
sI5032
F0.26145644220753367
sI5033
F0.37115770482588045
sI5034
F0.37115770482588045
sI5035
F0.3380287813140525
sI5036
F0.34790897969467577
sI5037
F0.41733817537810564
sI5038
F0.2672375831423503
sI5039
F0.2474499597722944
sI5040
F0.29257688265398185
sI5041
F0.37115770482588045
sI5042
F0.26145644220753367
sI5043
F0.28252964232226613
sI5044
F0.3038265607501918
sI5045
F0.26145644220753367
sI5046
F0.38413876753097853
sI5047
F0.32776719330987586
sI5048
F0.382424992293809
sI5049
F0.3866327916892876
sI5050
F0.32967648788757276
sI5051
F0.3225156385915272
sI5052
F0.317801018682427
sI5053
F0.37115770482588045
sI5054
F0.319768391700479
sI5055
F0.4034320561681314
sI5056
F0.28598175746221494
sI5057
F0.2779153614450123
sI5058
F0.30816192530855685
sI5059
F0.3425137653525856
sI5060
F0.45361666277730095
sI5061
F0.26145644220753367
sI5062
F0.273487944254197
sI5063
F0.3073688502519994
sI5064
F0.4295919907658751
sI5065
F0.317801018682427
sI5066
F0.5244309007361362
sI5067
F0.37115770482588045
sI5068
F0.27972373122970084
sI5069
F0.4387827655326121
sI5070
F0.4387827655326121
sI5071
F0.4072789780273198
sI5072
F0.29369900872518545
sI5073
F0.3645982614023189
sI5074
F0.3911042191089364
sI5075
F0.2774058952177017
sI5076
F0.2804100418856885
sI5077
F0.32068723656266707
sI5078
F0.2319120822862015
sI5079
F0.317307282583488
sI5080
F0.3254393438760208
sI5081
F0.3571361959045425
sI5082
F0.35849060463152577
sI5083
F0.30170700709219644
sI5084
F0.30075208430189915
sI5085
F0.26054797859025725
sI5086
F0.3632133526314478
sI5087
F0.20326368596694702
sI5088
F0.17213321153957678
sI5089
F0.4063809902405656
sI5090
F0.28125130253374336
sI5091
F0.4294590498321902
sI5092
F0.24816291400036175
sI5093
F0.24399110979905053
sI5094
F0.25514135546717237
sI5095
F0.3561246052268552
sI5096
F0.45361666277730095
sI5097
F0.37115770482588045
sI5098
F0.26838087449251796
sI5099
F0.37948950212186017
sI5100
F0.38413876753097853
sI5101
F0.3866327916892876
sI5102
F0.37115770482588045
sI5103
F0.4767357627510898
sI5104
F0.29867215939518227
sI5105
F0.2862749095484308
sI5106
F0.45361666277730095
sI5107
F0.37115770482588045
sI5108
F0.4312139171803354
sI5109
F0.37115770482588045
sI5110
F0.2739783215095572
sI5111
F0.2530917667913436
sI5112
F0.3943977821077957
sI5113
F0.37115770482588045
sI5114
F0.2698774048154851
sI5115
F0.3505486858384822
sI5116
F0.3279063013532464
sI5117
F0.3570682506738233
sI5118
F0.3304057605063782
sI5119
F0.2923021060677106
sI5120
F0.4001190326699581
sI5121
F0.3357707014413154
sI5122
F0.3570682506738233
sI5123
F0.33885758810843836
sI5124
F0.36886382235431225
sI5125
F0.3147921844476548
sI5126
F0.4312139171803354
sI5127
F0.37115770482588045
sI5128
F0.37115770482588045
sI5129
F0.37115770482588045
sI5130
F0.37115770482588045
sI5131
F0.37115770482588045
sI5132
F0.25556483811043473
sI5133
F0.45361666277730095
sI5134
F0.5244309007361362
sI5135
F0.4312139171803354
sI5136
F0.3147921844476548
sI5137
F0.5170770444816605
sI5138
F0.32967648788757276
sI5139
F0.28252964232226613
sI5140
F0.26145644220753367
sI5141
F0.3911042191089364
sI5142
F0.3645982614023189
sI5143
F0.26145644220753367
sI5144
F0.3038265607501918
sI5145
F0.32776719330987586
sI5146
F0.38413876753097853
sI5147
F0.3866327916892876
sI5148
F0.382424992293809
sI5149
F0.3225156385915272
sI5150
F0.32967648788757276
sI5151
F0.2739783215095572
sI5152
F0.3147921844476548
sI5153
F0.31815495225963436
sI5154
F0.27769021229135443
sI5155
F0.45361666277730095
sI5156
F0.45361666277730095
sI5157
F0.31212498691456786
sI5158
F0.37115770482588045
sI5159
F0.4312139171803354
sI5160
F0.45361666277730095
sI5161
F0.32967648788757276
sI5162
F0.41733817537810564
sI5163
F0.33162972469144164
sI5164
F0.5170770444816605
sI5165
F0.28161142155326235
sI5166
F0.32616092016126796
sI5167
F0.27742038327309726
sI5168
F0.4696465245950031
sI5169
F0.5244309007361362
sI5170
F0.4562672154362555
sI5171
F0.45361666277730095
sI5172
F0.3073688502519994
sI5173
F0.4312139171803354
sI5174
F0.5244309007361362
sI5175
F0.45361666277730095
sI5176
F0.25556483811043473
sI5177
F0.37115770482588045
sI5178
F0.4132805395094745
sI5179
F0.37115770482588045
sI5180
F0.42843823789397756
sI5181
F0.28252964232226613
sI5182
F0.26145644220753367
sI5183
F0.43528047903360373
sI5184
F0.26145644220753367
sI5185
F0.3038265607501918
sI5186
F0.32776719330987586
sI5187
F0.38413876753097853
sI5188
F0.3866327916892876
sI5189
F0.382424992293809
sI5190
F0.3225156385915272
sI5191
F0.32967648788757276
sI5192
F0.3561246052268552
sI5193
F0.45361666277730095
sI5194
F0.4767357627510898
sI5195
F0.29867215939518227
sI5196
F0.3866327916892876
sI5197
F0.37115770482588045
sI5198
F0.37948950212186017
sI5199
F0.38413876753097853
sI5200
F0.37115770482588045
sI5201
F0.26838087449251796
sI5202
F0.5319853951676884
sI5203
F0.45361666277730095
sI5204
F0.28718577658216576
sI5205
F0.26145644220753367
sI5206
F0.287876548173666
sI5207
F0.37115770482588045
sI5208
F0.36866297825341776
sI5209
F0.4551735588700075
sI5210
F0.3265796510486626
sI5211
F0.30279507463197763
sI5212
F0.37115770482588045
sI5213
F0.25556483811043473
sI5214
F0.45361666277730095
sI5215
F0.5244309007361362
sI5216
F0.4312139171803354
sI5217
F0.3147921844476548
sI5218
F0.5170770444816605
sI5219
F0.32967648788757276
sI5220
F0.37115770482588045
sI5221
F0.37115770482588045
sI5222
F0.33162972469144164
sI5223
F0.41733817537810564
sI5224
F0.3073688502519994
sI5225
F0.45361666277730095
sI5226
F0.4562672154362555
sI5227
F0.5244309007361362
sI5228
F0.4696465245950031
sI5229
F0.27742038327309726
sI5230
F0.32616092016126796
sI5231
F0.28161142155326235
sI5232
F0.4767357627510898
sI5233
F0.29867215939518227
sI5234
F0.3866327916892876
sI5235
F0.37115770482588045
sI5236
F0.37948950212186017
sI5237
F0.38413876753097853
sI5238
F0.37115770482588045
sI5239
F0.26838087449251796
sI5240
F0.3561246052268552
sI5241
F0.45361666277730095
sI5242
F0.32967648788757276
sI5243
F0.272954092584186
sI5244
F0.3693938630762921
sI5245
F0.37115770482588045
sI5246
F0.2876349046992291
sI5247
F0.4295919907658751
sI5248
F0.3718607659873502
sI5249
F0.26145644220753367
sI5250
F0.2911841845665237
sI5251
F0.2866017972133953
sI5252
F0.37115770482588045
sI5253
F0.37115770482588045
sI5254
F0.3911042191089364
sI5255
F0.3645982614023189
sI5256
F0.4295919907658751
sI5257
F0.3073688502519994
sI5258
F0.5244309007361362
sI5259
F0.317801018682427
sI5260
F0.27972373122970084
sI5261
F0.37115770482588045
sI5262
F0.4387827655326121
sI5263
F0.4387827655326121
sI5264
F0.274592626548707
sI5265
F0.3029152791078141
sI5266
F0.30183730432932726
sI5267
F0.2996995446835124
sI5268
F0.32616092016126796
sI5269
F0.3029152791078141
sI5270
F0.26145644220753367
sI5271
F0.36506213000212273
sI5272
F0.37115770482588045
sI5273
F0.37115770482588045
sI5274
F0.3113451851156981
sI5275
F0.38483959275865537
sI5276
F0.37115770482588045
sI5277
F0.31770274423240347
sI5278
F0.44346984750122836
sI5279
F0.3503192145692992
sI5280
F0.41733817537810564
sI5281
F0.37115770482588045
sI5282
F0.37115770482588045
sI5283
F0.37115770482588045
sI5284
F1.0
sI5285
F0.33885758810843836
sI5286
F0.36866297825341776
sI5287
F0.4551735588700075
sI5288
F0.3265796510486626
sI5289
F0.30279507463197763
sI5290
F0.28718577658216576
sI5291
F0.26145644220753367
sI5292
F0.287876548173666
sI5293
F0.37115770482588045
sI5294
F0.5319853951676884
sI5295
F0.45361666277730095
sI5296
F0.27742038327309726
sI5297
F0.4696465245950031
sI5298
F0.28161142155326235
sI5299
F0.32616092016126796
sI5300
F0.45361666277730095
sI5301
F0.3073688502519994
sI5302
F0.5244309007361362
sI5303
F0.4562672154362555
sI5304
F0.41733817537810564
sI5305
F0.33162972469144164
sI5306
F0.47202845654375875
sI5307
F0.45361666277730095
sI5308
F0.3326815790962817
sI5309
F0.41581527421252584
sI5310
F0.37115770482588045
sI5311
F0.440634367714651
sI5312
F0.4072789780273198
sI5313
F0.45361666277730095
sI5314
F0.4015887645544022
sI5315
F0.3224100297338033
sI5316
F0.45361666277730095
sI5317
F0.2862749095484308
sI5318
F0.45361666277730095
sI5319
F0.43528047903360373
sI5320
F0.489439282912941
sI5321
F0.3139463060892092
sI5322
F0.2571428571428571
sI5323
F0.3319561049347182
sI5324
F0.48201991606354083
sI5325
F0.3411926157302325
sI5326
F0.3370155390968863
sI5327
F0.26145644220753367
sI5328
F0.3168252329511417
sI5329
F0.43528047903360373
sI5330
F0.489439282912941
sI5331
F0.3319561049347182
sI5332
F0.48201991606354083
sI5333
F0.3139463060892092
sI5334
F0.2571428571428571
sI5335
F0.26145644220753367
sI5336
F0.3168252329511417
sI5337
F0.3411926157302325
sI5338
F0.3370155390968863
sI5339
F0.42843823789397756
sI5340
F0.2698774048154851
sI5341
F0.37115770482588045
sI5342
F0.3943977821077957
sI5343
F0.2530917667913436
sI5344
F0.2739783215095572
sI5345
F0.37115770482588045
sI5346
F0.4312139171803354
sI5347
F0.37115770482588045
sI5348
F0.45361666277730095
sI5349
F0.2862749095484308
sI5350
F0.483081091497028
sI5351
F0.2876349046992291
sI5352
F0.4295919907658751
sI5353
F0.3693938630762921
sI5354
F0.37115770482588045
sI5355
F0.2911841845665237
sI5356
F0.2866017972133953
sI5357
F0.3718607659873502
sI5358
F0.26145644220753367
sI5359
F0.32967648788757276
sI5360
F0.272954092584186
sI5361
F0.5170770444816605
sI5362
F0.32967648788757276
sI5363
F0.4312139171803354
sI5364
F0.3147921844476548
sI5365
F0.45361666277730095
sI5366
F0.5244309007361362
sI5367
F0.37115770482588045
sI5368
F0.25556483811043473
sI5369
F0.37115770482588045
sI5370
F0.37115770482588045
sI5371
F0.37115770482588045
sI5372
F0.37115770482588045
sI5373
F1.0
sI5374
F0.37115770482588045
sI5375
F0.37115770482588045
sI5376
F0.3503192145692992
sI5377
F0.41733817537810564
sI5378
F0.31770274423240347
sI5379
F0.44346984750122836
sI5380
F0.38483959275865537
sI5381
F0.37115770482588045
sI5382
F0.2724144547389476
sI5383
F0.4015887645544022
sI5384
F0.3224100297338033
sI5385
F0.3326815790962817
sI5386
F0.41581527421252584
sI5387
F0.47202845654375875
sI5388
F0.45361666277730095
sI5389
F0.4072789780273198
sI5390
F0.45033138132564293
sI5391
F0.37115770482588045
sI5392
F0.440634367714651
sI5393
F0.37115770482588045
sI5394
F0.37115770482588045
sI5395
F0.38483959275865537
sI5396
F0.37115770482588045
sI5397
F0.31770274423240347
sI5398
F0.44346984750122836
sI5399
F0.3503192145692992
sI5400
F0.41733817537810564
sI5401
F0.37115770482588045
sI5402
F0.37115770482588045
sI5403
F0.45361666277730095
sI5404
F0.4312139171803354
sI5405
F0.2833018101435445
sI5406
F0.37115770482588045
sI5407
F0.31212498691456786
sI5408
F0.45361666277730095
sI5409
F0.37115770482588045
sI5410
F0.27769021229135443
sI5411
F0.31815495225963436
sI5412
F0.3147921844476548
sI5413
F0.2739783215095572
sI5414
F0.28161142155326235
sI5415
F0.32616092016126796
sI5416
F0.41733817537810564
sI5417
F0.4696465245950031
sI5418
F0.3168252329511417
sI5419
F0.26145644220753367
sI5420
F0.32967648788757276
sI5421
F0.3411926157302325
sI5422
F0.41733817537810564
sI5423
F0.33162972469144164
sI5424
F0.489439282912941
sI5425
F0.43528047903360373
sI5426
F0.26145644220753367
sI5427
F0.3038265607501918
sI5428
F0.32776719330987586
sI5429
F0.38413876753097853
sI5430
F0.3866327916892876
sI5431
F0.382424992293809
sI5432
F0.3225156385915272
sI5433
F0.32967648788757276
sI5434
F0.28252964232226613
sI5435
F0.26145644220753367
sI5436
F0.2474499597722944
sI5437
F0.4129272819483681
sI5438
F0.45033138132564293
sI5439
F0.45033138132564293
sI5440
F0.4129272819483681
sI5441
F0.4129272819483681
sI5442
F0.45361666277730095
sI5443
F0.4129272819483681
sI5444
F0.2833018101435445
sI5445
F0.37115770482588045
sI5446
F0.28718577658216576
sI5447
F0.26145644220753367
sI5448
F0.287876548173666
sI5449
F0.37115770482588045
sI5450
F0.36866297825341776
sI5451
F0.4551735588700075
sI5452
F0.3265796510486626
sI5453
F0.30279507463197763
sI5454
F0.5319853951676884
sI5455
F0.45361666277730095
sI5456
F0.319768391700479
sI5457
F0.37115770482588045
sI5458
F0.32967648788757276
sI5459
F0.272954092584186
sI5460
F0.30816192530855685
sI5461
F0.2779153614450123
sI5462
F0.45361666277730095
sI5463
F0.3425137653525856
sI5464
F0.3718607659873502
sI5465
F0.26145644220753367
sI5466
F0.2911841845665237
sI5467
F0.2866017972133953
sI5468
F0.3693938630762921
sI5469
F0.37115770482588045
sI5470
F0.2876349046992291
sI5471
F0.4295919907658751
sI5472
F0.3503192145692992
sI5473
F0.41733817537810564
sI5474
F0.4164948977365525
sI5475
F0.44346984750122836
sI5476
F0.38483959275865537
sI5477
F0.37115770482588045
sI5478
F0.31770274423240347
sI5479
F0.37115770482588045
sI5480
F0.42843823789397756
sI5481
F0.26145644220753367
sI5482
F0.37115770482588045
sI5483
F0.37115770482588045
sI5484
F0.3380287813140525
sI5485
F0.34790897969467577
sI5486
F0.41733817537810564
sI5487
F0.2672375831423503
sI5488
F0.2474499597722944
sI5489
F0.29257688265398185
sI5490
F0.37115770482588045
sI5491
F0.3224100297338033
sI5492
F0.5319853951676884
sI5493
F0.4015887645544022
sI5494
F0.45361666277730095
sI5495
F0.43528047903360373
sI5496
F0.42843823789397756
sI5497
F0.31212498691456786
sI5498
F0.37115770482588045
sI5499
F0.45361666277730095
sI5500
F0.45361666277730095
sI5501
F0.31815495225963436
sI5502
F0.27769021229135443
sI5503
F0.2739783215095572
sI5504
F0.26145644220753367
sI5505
F0.4312139171803354
sI5506
F0.45361666277730095
sI5507
F0.287876548173666
sI5508
F0.37115770482588045
sI5509
F0.36866297825341776
sI5510
F0.4551735588700075
sI5511
F0.3265796510486626
sI5512
F0.30279507463197763
sI5513
F0.25556483811043473
sI5514
F0.37115770482588045
sI5515
F0.5244309007361362
sI5516
F0.45361666277730095
sI5517
F0.28252964232226613
sI5518
F0.26145644220753367
sI5519
F0.32967648788757276
sI5520
F0.5170770444816605
sI5521
F0.3866327916892876
sI5522
F0.382424992293809
sI5523
F0.3225156385915272
sI5524
F0.32967648788757276
sI5525
F0.26145644220753367
sI5526
F0.3038265607501918
sI5527
F0.32776719330987586
sI5528
F0.38413876753097853
sI5529
F0.28252964232226613
sI5530
F0.26145644220753367
sI5531
F0.32776719330987586
sI5532
F0.38413876753097853
sI5533
F0.26145644220753367
sI5534
F0.3038265607501918
sI5535
F0.3225156385915272
sI5536
F0.32967648788757276
sI5537
F0.3866327916892876
sI5538
F0.382424992293809
sI5539
F0.4164948977365525
sI5540
F0.44346984750122836
sI5541
F0.28255591168573113
sI5542
F0.31815495225963436
sI5543
F0.45945707462876634
sI5544
F0.483081091497028
sI5545
F0.43528047903360373
sI5546
F0.42843823789397756
sI5547
F0.37115770482588045
sI5548
F0.4132805395094745
sI5549
F0.45361666277730095
sI5550
F0.47202845654375875
sI5551
F0.41581527421252584
sI5552
F0.3326815790962817
sI5553
F0.440634367714651
sI5554
F0.37115770482588045
sI5555
F0.45361666277730095
sI5556
F0.4072789780273198
sI5557
F0.41733817537810564
sI5558
F0.3224100297338033
sI5559
F0.4015887645544022
sI5560
F0.4015887645544022
sI5561
F0.3224100297338033
sI5562
F0.4072789780273198
sI5563
F0.45361666277730095
sI5564
F0.37115770482588045
sI5565
F0.440634367714651
sI5566
F0.3326815790962817
sI5567
F0.41581527421252584
sI5568
F0.47202845654375875
sI5569
F0.45361666277730095
sI5570
F0.37115770482588045
sI5571
F0.26145644220753367
sI5572
F0.37115770482588045
sI5573
F0.29257688265398185
sI5574
F0.2474499597722944
sI5575
F0.2672375831423503
sI5576
F0.41733817537810564
sI5577
F0.34790897969467577
sI5578
F0.3380287813140525
sI5579
F0.37115770482588045
sI5580
F0.317801018682427
sI5581
F0.5244309007361362
sI5582
F0.3073688502519994
sI5583
F0.4295919907658751
sI5584
F0.4387827655326121
sI5585
F0.4387827655326121
sI5586
F0.37115770482588045
sI5587
F0.27972373122970084
sI5588
F0.3645982614023189
sI5589
F0.3911042191089364
sI5590
F0.29369900872518545
sI5591
F0.4072789780273198
sI5592
F0.32967648788757276
sI5593
F0.3154422296373848
sI5594
F0.32967648788757276
sI5595
F0.41733817537810564
sI5596
F0.41733817537810564
sI5597
F0.44346984750122836
sI5598
F0.30183730432932726
sI5599
F0.32616092016126796
sI5600
F0.36265802576730166
sI5601
F0.2763378210046511
sI5602
F0.38535466992881545
sI5603
F0.32559257807001424
sI5604
F0.3727583577225788
sI5605
F0.30399451352009244
sI5606
F0.2873654612844768
sI5607
F0.3009245841000464
sI5608
F0.2960401278100597
sI5609
F0.3162727455028367
sI5610
F0.347630519549878
sI5611
F0.30538143191249223
sI5612
F0.29018839535827284
sI5613
F0.24870979686334152
sI5614
F0.28125734050143125
sI5615
F0.2888013794222938
sI5616
F0.33349594104800423
sI5617
F0.2898719291606712
sI5618
F0.27139547799915187
sI5619
F0.23038002797504958
sI5620
F0.2956477353856426
sI5621
F0.40681334844143635
sI5622
F0.36265802576730166
sI5623
F0.3240680735640652
sI5624
F0.31179609234370165
sI5625
F0.33082983577334574
sI5626
F0.3395745583799074
sI5627
F0.3313679408137269
sI5628
F0.3112939587194251
sI5629
F0.2763378210046511
sI5630
F0.29785040285305875
sI5631
F0.291417572594211
sI5632
F0.3473229643818979
sI5633
F0.37782288209124654
sI5634
F0.35489530761086147
sI5635
F0.2826670048018393
sI5636
F0.3088856936864922
sI5637
F0.2675177519652845
sI5638
F0.359334895569266
sI5639
F0.322724081132214
sI5640
F0.32255646891034784
sI5641
F0.2700824728825508
sI5642
F0.37136019418579796
sI5643
F0.29018839535827284
sI5644
F0.2783334368068243
sI5645
F0.3571361959045425
sI5646
F0.30170700709219644
sI5647
F0.322724081132214
sI5648
F0.32068723656266707
sI5649
F0.24870979686334152
sI5650
F0.36265802576730166
sI5651
F0.4219343866648977
sI5652
F0.23480282928016508
sI5653
F0.30609800353813155
sI5654
F0.22978771599603842
sI5655
F0.23290729592971549
sI5656
F0.29256389106074526
sI5657
F0.3924793220917162
sI5658
F0.25409415803122115
sI5659
F0.21297108082246025
sI5660
F0.3339394850762711
sI5661
F0.26647365975039927
sI5662
F0.3414896564166422
sI5663
F0.19520480765055273
sI5664
F0.2892271003382416
sI5665
F0.31343263485636425
sI5666
F0.35386743665041603
sI5667
F0.327739121134362
sI5668
F0.27171696620139096
sI5669
F0.29511737779703107
sI5670
F0.27875875991484905
sI5671
F0.3088856936864922
sI5672
F0.2370755524144459
sI5673
F0.32255646891034784
sI5674
F0.34323568528550336
sI5675
F0.28035875774034036
sI5676
F0.30170700709219644
sI5677
F0.28891043793075316
sI5678
F0.3088856936864922
sI5679
F0.28517591762526895
sI5680
F0.3154769149818569
sI5681
F0.3452964869654575
sI5682
F0.322724081132214
sI5683
F0.32772084205051366
sI5684
F0.3131270740663057
sI5685
F0.2495936970330881
sI5686
F0.3181999950260982
sI5687
F0.2630902835316962
sI5688
F0.3737455239775482
sI5689
F0.36273715258631856
sI5690
F0.29390890713638906
sI5691
F0.29018465167223484
sI5692
F0.32018567629113415
sI5693
F0.30419035171657133
sI5694
F0.3164383916664765
sI5695
F0.3211194477988694
sI5696
F0.30609800353813155
sI5697
F0.29634444051805736
sI5698
F0.29634444051805736
sI5699
F0.3198579411052218
sI5700
F0.2804100418856885
sI5701
F0.2774058952177017
sI5702
F0.2319120822862015
sI5703
F0.32068723656266707
sI5704
F0.3254393438760208
sI5705
F0.317307282583488
sI5706
F0.35849060463152577
sI5707
F0.3571361959045425
sI5708
F0.30075208430189915
sI5709
F0.30170700709219644
sI5710
F0.32018567629113415
sI5711
F0.3351446508380875
sI5712
F0.34455830777644453
sI5713
F0.30419035171657133
sI5714
F0.3351446508380875
sI5715
F0.28035875774034036
sI5716
F0.34323568528550336
sI5717
F0.32255646891034784
sI5718
F0.2370755524144459
sI5719
F0.29670948289441385
sI5720
F0.2956477353856426
sI5721
F0.28891043793075316
sI5722
F0.30170700709219644
sI5723
F0.3016205146813412
sI5724
F0.25238691696915044
sI5725
F0.3425137653525856
sI5726
F0.3351446508380875
sI5727
F0.347630519549878
sI5728
F0.30538143191249223
sI5729
F0.2960401278100597
sI5730
F0.3162727455028367
sI5731
F0.2873654612844768
sI5732
F0.3009245841000464
sI5733
F0.3727583577225788
sI5734
F0.30399451352009244
sI5735
F0.38535466992881545
sI5736
F0.32559257807001424
sI5737
F0.3149850669857365
sI5738
F0.3158146525767441
sI5739
F0.32142257631408816
sI5740
F0.2916214044896391
sI5741
F0.2905305114065671
sI5742
F0.3737455239775482
sI5743
F0.3992055951545855
sI5744
F0.32772084205051366
sI5745
F0.3555448876557267
sI5746
F0.37129749250148364
sI5747
F0.29018465167223484
sI5748
F0.29390890713638906
sI5749
F0.30419035171657133
sI5750
F0.32018567629113415
sI5751
F0.3211194477988694
sI5752
F0.3164383916664765
sI5753
F0.29634444051805736
sI5754
F0.30609800353813155
sI5755
F0.3198579411052218
sI5756
F0.29634444051805736
sI5757
F0.322724081132214
sI5758
F0.2817818446082542
sI5759
F0.32772084205051366
sI5760
F0.35219196180349166
sI5761
F0.34613743624806204
sI5762
F0.3626838075138605
sI5763
F0.2932491162341597
sI5764
F0.32003278410627567
sI5765
F0.2671899155785355
sI5766
F0.3065571976443062
sI5767
F0.3149850669857365
sI5768
F0.3158146525767441
sI5769
F0.32142257631408816
sI5770
F0.2916214044896391
sI5771
F0.2905305114065671
sI5772
F0.3737455239775482
sI5773
F0.3992055951545855
sI5774
F0.32772084205051366
sI5775
F0.3555448876557267
sI5776
F0.37129749250148364
sI5777
F0.36265802576730166
sI5778
F0.3027748417883395
sI5779
F0.4219343866648977
sI5780
F0.30075208430189915
sI5781
F0.3440955948654802
sI5782
F0.3585678998394481
sI5783
F0.30159796178556675
sI5784
F0.3442357946963096
sI5785
F0.32959134229519965
sI5786
F0.3405053822494036
sI5787
F0.29707751141622873
sI5788
F0.3028298245227748
sI5789
F0.3473229643818979
sI5790
F0.35210620831549705
sI5791
F0.3220258927310845
sI5792
F0.3313786649754363
sI5793
F0.3741817387356084
sI5794
F0.31097609530941395
sI5795
F0.2898719291606712
sI5796
F0.27398618980801753
sI5797
F0.237652511871306
sI5798
F0.33441276386206464
sI5799
F0.2989224844140443
sI5800
F0.327739121134362
sI5801
F0.3473229643818979
sI5802
F0.30030711311756303
sI5803
F0.329951439957456
sI5804
F0.30500317465907584
sI5805
F0.327739121134362
sI5806
F0.2989224844140443
sI5807
F0.30030711311756303
sI5808
F0.3473229643818979
sI5809
F0.2845606885331709
sI5810
F0.3052781690687764
sI5811
F0.33441276386206464
sI5812
F0.237652511871306
sI5813
F0.32959134229519965
sI5814
F0.3405053822494036
sI5815
F0.4219343866648977
sI5816
F0.30075208430189915
sI5817
F0.36265802576730166
sI5818
F0.3027748417883395
sI5819
F0.30159796178556675
sI5820
F0.3442357946963096
sI5821
F0.3440955948654802
sI5822
F0.3585678998394481
sI5823
F0.29390890713638906
sI5824
F0.36265802576730166
sI5825
F0.23480282928016508
sI5826
F0.322724081132214
sI5827
F0.29018465167223484
sI5828
F0.32068723656266707
sI5829
F0.37129749250148364
sI5830
F0.3555448876557267
sI5831
F0.37136019418579796
sI5832
F0.2783334368068243
sI5833
F0.3038003973883642
sI5834
F0.2370755524144459
sI5835
F0.32255646891034784
sI5836
F0.34323568528550336
sI5837
F0.28429976381119626
sI5838
F0.30170700709219644
sI5839
F0.28891043793075316
sI5840
F0.2956477353856426
sI5841
F0.29670948289441385
sI5842
F0.2689895690856213
sI5843
F0.25238691696915044
sI5844
F0.2826670048018393
sI5845
F0.35489530761086147
sI5846
F0.37782288209124654
sI5847
F0.3866327916892876
sI5848
F0.4562672154362555
sI5849
F0.45361666277730095
sI5850
F0.3473229643818979
sI5851
F0.30311624320025427
sI5852
F0.32616092016126796
sI5853
F0.38413876753097853
sI5854
F0.45361666277730095
sI5855
F0.322724081132214
sI5856
F0.3408675348310226
sI5857
F0.3503192145692992
sI5858
F0.359334895569266
sI5859
F0.2675177519652845
sI5860
F0.3088856936864922
sI5861
F0.2783334368068243
sI5862
F0.36265802576730166
sI5863
F0.2817818446082542
sI5864
F0.322724081132214
sI5865
F0.35219196180349166
sI5866
F0.32772084205051366
sI5867
F0.3626838075138605
sI5868
F0.34613743624806204
sI5869
F0.32003278410627567
sI5870
F0.2932491162341597
sI5871
F0.3065571976443062
sI5872
F0.2671899155785355
sI5873
F0.32068723656266707
sI5874
F0.322724081132214
sI5875
F0.2817818446082542
sI5876
F0.2932491162341597
sI5877
F0.32003278410627567
sI5878
F0.2671899155785355
sI5879
F0.3065571976443062
sI5880
F0.32772084205051366
sI5881
F0.35219196180349166
sI5882
F0.34613743624806204
sI5883
F0.3626838075138605
sI5884
F0.317307282583488
sI5885
F0.3254393438760208
sI5886
F0.3571361959045425
sI5887
F0.35849060463152577
sI5888
F0.2774058952177017
sI5889
F0.2804100418856885
sI5890
F0.32068723656266707
sI5891
F0.2319120822862015
sI5892
F0.30170700709219644
sI5893
F0.30075208430189915
sI5894
F0.2700824728825508
sI5895
F0.32255646891034784
sI5896
F0.322724081132214
sI5897
F0.359334895569266
sI5898
F0.2675177519652845
sI5899
F0.3088856936864922
sI5900
F0.2826670048018393
sI5901
F0.35489530761086147
sI5902
F0.37782288209124654
sI5903
F0.3473229643818979
sI5904
F0.359334895569266
sI5905
F0.307356266773901
sI5906
F0.32207508439898846
sI5907
F0.2878943215910187
sI5908
F0.3502877217163297
sI5909
F0.39892382834403173
sI5910
F0.2898719291606712
sI5911
F0.2932331535548616
sI5912
F0.23548419978983826
sI5913
F0.28975693326280777
sI5914
F0.33167397837001517
sI5915
F0.30789279329767993
sI5916
F0.2963868651226154
sI5917
F0.3542883624316668
sI5918
F0.2963868651226154
sI5919
F0.3135751884138581
sI5920
F0.29813660150472904
sI5921
F0.3351635644554386
sI5922
F0.3170159107296166
sI5923
F0.3244818116432318
sI5924
F0.2878943215910187
sI5925
F0.32207508439898846
sI5926
F0.307356266773901
sI5927
F0.359334895569266
sI5928
F0.2932331535548616
sI5929
F0.2898719291606712
sI5930
F0.39892382834403173
sI5931
F0.3502877217163297
sI5932
F0.3414896564166422
sI5933
F0.28975693326280777
sI5934
F0.23548419978983826
sI5935
F0.2688855978546271
sI5936
F0.29256389106074526
sI5937
F0.3945346025107595
sI5938
F0.3088856936864922
sI5939
F0.24609121903408523
sI5940
F0.2142548944664088
sI5941
F0.2760867581711399
sI5942
F0.25826975535347574
sI5943
F0.31426566754089563
sI5944
F0.31087095478401183
sI5945
F0.2845606885331709
sI5946
F0.25745341556809315
sI5947
F0.3395745583799074
sI5948
F0.3741817387356084
sI5949
F0.31097609530941395
sI5950
F0.3220258927310845
sI5951
F0.3313786649754363
sI5952
F0.3473229643818979
sI5953
F0.35210620831549705
sI5954
F0.29707751141622873
sI5955
F0.3028298245227748
sI5956
F0.2898719291606712
sI5957
F0.27398618980801753
sI5958
F0.29018839535827284
sI5959
F0.24870979686334152
sI5960
F0.27139547799915187
sI5961
F0.23038002797504958
sI5962
F0.2956477353856426
sI5963
F0.40681334844143635
sI5964
F0.28125734050143125
sI5965
F0.2888013794222938
sI5966
F0.33349594104800423
sI5967
F0.2898719291606712
sI5968
F0.322724081132214
sI5969
F0.32068723656266707
sI5970
F0.36265802576730166
sI5971
F0.23480282928016508
sI5972
F0.37136019418579796
sI5973
F0.2783334368068243
sI5974
F0.3571361959045425
sI5975
F0.30170700709219644
sI5976
F0.3038003973883642
sI5977
F0.28429976381119626
sI5978
F0.322724081132214
sI5979
F0.32068723656266707
sI5980
F0.3220258927310845
sI5981
F0.23480282928016508
sI5982
F0.37136019418579796
sI5983
F0.2783334368068243
sI5984
F0.29018465167223484
sI5985
F0.29390890713638906
sI5986
F0.3571361959045425
sI5987
F0.3198579411052218
sI5988
F0.29634444051805736
sI5989
F0.29634444051805736
sI5990
F0.30170700709219644
sI5991
F0.3211194477988694
sI5992
F0.3164383916664765
sI5993
F0.30419035171657133
sI5994
F0.32018567629113415
sI5995
F0.3737455239775482
sI5996
F0.36273715258631856
sI5997
F0.3181999950260982
sI5998
F0.2630902835316962
sI5999
F0.3313679408137269
s.